---
triple:          'x86_64-apple-darwin'
binary-path:     '/Users/leechilvers/Documents/Documents/#UoB/CompSci/Graphics/raytracer_start/main_lab1'
relocations:
  - { offsetInCU: 0x26, offset: 0x26, size: 0x8, addend: 0x0, symName: _main, symObjAddr: 0x0, symBinAddr: 0x100002890, symSize: 0x150 }
  - { offsetInCU: 0x2D6, offset: 0x2D6, size: 0x8, addend: 0x0, symName: _main, symObjAddr: 0x0, symBinAddr: 0x100002890, symSize: 0x150 }
  - { offsetInCU: 0x360, offset: 0x360, size: 0x8, addend: 0x0, symName: __Z3cosB7v160006f, symObjAddr: 0x150, symBinAddr: 0x1000029E0, symSize: 0x20 }
  - { offsetInCU: 0x38E, offset: 0x38E, size: 0x8, addend: 0x0, symName: __Z3sinB7v160006f, symObjAddr: 0x170, symBinAddr: 0x100002A00, symSize: 0x1D }
  - { offsetInCU: 0x2DE2, offset: 0x3325, size: 0x8, addend: 0x0, symName: __ZNSt3__124__put_character_sequenceB7v160006IcNS_11char_traitsIcEEEERNS_13basic_ostreamIT_T0_EES7_PKS4_m, symObjAddr: 0x1250, symBinAddr: 0x100003C70, symSize: 0x1F0 }
  - { offsetInCU: 0x4F2C, offset: 0x546F, size: 0x8, addend: 0x0, symName: __ZNSt3__1lsB7v160006INS_11char_traitsIcEEEERNS_13basic_ostreamIcT_EES6_PKc, symObjAddr: 0xB10, symBinAddr: 0x100003530, symSize: 0x40 }
  - { offsetInCU: 0x4F72, offset: 0x54B5, size: 0x8, addend: 0x0, symName: __ZNSt3__1lsB7v160006INS_11char_traitsIcEEEERNS_13basic_ostreamIcT_EES6_h, symObjAddr: 0xB50, symBinAddr: 0x100003570, symSize: 0x30 }
  - { offsetInCU: 0x4FC3, offset: 0x5506, size: 0x8, addend: 0x0, symName: __ZNSt3__116__pad_and_outputB7v160006IcNS_11char_traitsIcEEEENS_19ostreambuf_iteratorIT_T0_EES6_PKS4_S8_S8_RNS_8ios_baseES4_, symObjAddr: 0x14A0, symBinAddr: 0x100003EC0, symSize: 0x220 }
  - { offsetInCU: 0x5093, offset: 0x55D6, size: 0x8, addend: 0x0, symName: __ZNSt3__119__debug_db_insert_cB7v160006INS_12basic_stringIcNS_11char_traitsIcEENS_9allocatorIcEEEEEEvPT_, symObjAddr: 0x1930, symBinAddr: 0x100004350, symSize: 0x10 }
  - { offsetInCU: 0x50C4, offset: 0x5607, size: 0x8, addend: 0x0, symName: __ZNSt3__112__to_addressB7v160006IKcEEPT_S3_, symObjAddr: 0x19D0, symBinAddr: 0x1000043F0, symSize: 0x10 }
  - { offsetInCU: 0x50F9, offset: 0x563C, size: 0x8, addend: 0x0, symName: __ZNSt3__130__libcpp_is_constant_evaluatedB7v160006Ev, symObjAddr: 0x1AE0, symBinAddr: 0x100004500, symSize: 0x10 }
  - { offsetInCU: 0x5149, offset: 0x568C, size: 0x8, addend: 0x0, symName: __ZNSt3__19use_facetB7v160006INS_5ctypeIcEEEERKT_RKNS_6localeE, symObjAddr: 0x1C80, symBinAddr: 0x1000046A0, symSize: 0x30 }
  - { offsetInCU: 0x5618, offset: 0x5B5B, size: 0x8, addend: 0x0, symName: __ZNSt3__118__constexpr_strlenB7v160006EPKc, symObjAddr: 0x1D10, symBinAddr: 0x100004730, symSize: 0x1B }
  - { offsetInCU: 0x79A3, offset: 0x7EE6, size: 0x8, addend: 0x0, symName: __ZN11FrameBufferC2Eii, symObjAddr: 0x0, symBinAddr: 0x100002A20, symSize: 0x140 }
  - { offsetInCU: 0x7A05, offset: 0x7F48, size: 0x8, addend: 0x0, symName: __ZN11FrameBufferC1Eii, symObjAddr: 0x140, symBinAddr: 0x100002B60, symSize: 0x30 }
  - { offsetInCU: 0x7A4B, offset: 0x7F8E, size: 0x8, addend: 0x0, symName: __ZN11FrameBuffer9plotPixelEiifff, symObjAddr: 0x170, symBinAddr: 0x100002B90, symSize: 0xE0 }
  - { offsetInCU: 0x7AB7, offset: 0x7FFA, size: 0x8, addend: 0x0, symName: __ZN11FrameBuffer9plotDepthEiif, symObjAddr: 0x250, symBinAddr: 0x100002C70, symSize: 0x90 }
  - { offsetInCU: 0x7B07, offset: 0x804A, size: 0x8, addend: 0x0, symName: __ZN11FrameBuffer8getDepthEiiRf, symObjAddr: 0x2E0, symBinAddr: 0x100002D00, symSize: 0x90 }
  - { offsetInCU: 0x7B57, offset: 0x809A, size: 0x8, addend: 0x0, symName: __ZN11FrameBuffer8getPixelEiiRfS0_S0_, symObjAddr: 0x370, symBinAddr: 0x100002D90, symSize: 0xE0 }
  - { offsetInCU: 0x7BC3, offset: 0x8106, size: 0x8, addend: 0x0, symName: __ZN11FrameBuffer12writeRGBFileEPc, symObjAddr: 0x450, symBinAddr: 0x100002E70, symSize: 0x590 }
  - { offsetInCU: 0x7D07, offset: 0x824A, size: 0x8, addend: 0x0, symName: __ZNSt3__114basic_ofstreamIcNS_11char_traitsIcEEEC1Ev, symObjAddr: 0x9E0, symBinAddr: 0x100003400, symSize: 0x100 }
  - { offsetInCU: 0x7D31, offset: 0x8274, size: 0x8, addend: 0x0, symName: __ZNKSt3__114basic_ofstreamIcNS_11char_traitsIcEEE7is_openEv, symObjAddr: 0xAE0, symBinAddr: 0x100003500, symSize: 0x30 }
  - { offsetInCU: 0x7D57, offset: 0x829A, size: 0x8, addend: 0x0, symName: __ZNSt3__114basic_ofstreamIcNS_11char_traitsIcEEE5closeEv, symObjAddr: 0xB80, symBinAddr: 0x1000035A0, symSize: 0x50 }
  - { offsetInCU: 0x7D82, offset: 0x82C5, size: 0x8, addend: 0x0, symName: __ZNSt3__114basic_ofstreamIcNS_11char_traitsIcEEED1Ev, symObjAddr: 0xBD0, symBinAddr: 0x1000035F0, symSize: 0x80 }
  - { offsetInCU: 0x7DAD, offset: 0x82F0, size: 0x8, addend: 0x0, symName: __ZN11FrameBuffer14writeDepthFileEPc, symObjAddr: 0xC60, symBinAddr: 0x100003680, symSize: 0x400 }
  - { offsetInCU: 0x7E76, offset: 0x83B9, size: 0x8, addend: 0x0, symName: __ZNSt3__114basic_ofstreamIcNS_11char_traitsIcEEED2Ev, symObjAddr: 0x1060, symBinAddr: 0x100003A80, symSize: 0xA0 }
  - { offsetInCU: 0x7EAD, offset: 0x83F0, size: 0x8, addend: 0x0, symName: __ZTv0_n24_NSt3__114basic_ofstreamIcNS_11char_traitsIcEEED1Ev, symObjAddr: 0x1100, symBinAddr: 0x100003B20, symSize: 0x20 }
  - { offsetInCU: 0x7EC5, offset: 0x8408, size: 0x8, addend: 0x0, symName: __ZNSt3__19basic_iosIcNS_11char_traitsIcEEEC2B7v160006Ev, symObjAddr: 0x1120, symBinAddr: 0x100003B40, symSize: 0x40 }
  - { offsetInCU: 0x7EEE, offset: 0x8431, size: 0x8, addend: 0x0, symName: __ZNSt3__113basic_ostreamIcNS_11char_traitsIcEEEC2B7v160006EPNS_15basic_streambufIcS2_EE, symObjAddr: 0x1160, symBinAddr: 0x100003B80, symSize: 0x50 }
  - { offsetInCU: 0x7F31, offset: 0x8474, size: 0x8, addend: 0x0, symName: __ZNSt3__18ios_baseC2B7v160006Ev, symObjAddr: 0x11B0, symBinAddr: 0x100003BD0, symSize: 0x20 }
  - { offsetInCU: 0x7F59, offset: 0x849C, size: 0x8, addend: 0x0, symName: __ZNSt3__19basic_iosIcNS_11char_traitsIcEEE4initB7v160006EPNS_15basic_streambufIcS2_EE, symObjAddr: 0x11D0, symBinAddr: 0x100003BF0, symSize: 0x50 }
  - { offsetInCU: 0x7F8F, offset: 0x84D2, size: 0x8, addend: 0x0, symName: __ZNSt3__111char_traitsIcE3eofEv, symObjAddr: 0x1220, symBinAddr: 0x100003C40, symSize: 0x10 }
  - { offsetInCU: 0x7FA2, offset: 0x84E5, size: 0x8, addend: 0x0, symName: __ZNKSt3__113basic_filebufIcNS_11char_traitsIcEEE7is_openEv, symObjAddr: 0x1230, symBinAddr: 0x100003C50, symSize: 0x20 }
  - { offsetInCU: 0x7FC9, offset: 0x850C, size: 0x8, addend: 0x0, symName: __ZNSt3__111char_traitsIcE6lengthEPKc, symObjAddr: 0x1440, symBinAddr: 0x100003E60, symSize: 0x40 }
  - { offsetInCU: 0x800A, offset: 0x854D, size: 0x8, addend: 0x0, symName: __ZNKSt3__113basic_ostreamIcNS_11char_traitsIcEEE6sentrycvbB7v160006Ev, symObjAddr: 0x1480, symBinAddr: 0x100003EA0, symSize: 0x20 }
  - { offsetInCU: 0x802F, offset: 0x8572, size: 0x8, addend: 0x0, symName: __ZNSt3__119ostreambuf_iteratorIcNS_11char_traitsIcEEEC1B7v160006ERNS_13basic_ostreamIcS2_EE, symObjAddr: 0x16C0, symBinAddr: 0x1000040E0, symSize: 0x30 }
  - { offsetInCU: 0x8065, offset: 0x85A8, size: 0x8, addend: 0x0, symName: __ZNKSt3__18ios_base5flagsB7v160006Ev, symObjAddr: 0x16F0, symBinAddr: 0x100004110, symSize: 0x20 }
  - { offsetInCU: 0x808B, offset: 0x85CE, size: 0x8, addend: 0x0, symName: __ZNKSt3__19basic_iosIcNS_11char_traitsIcEEE4fillB7v160006Ev, symObjAddr: 0x1710, symBinAddr: 0x100004130, symSize: 0x70 }
  - { offsetInCU: 0x80B2, offset: 0x85F5, size: 0x8, addend: 0x0, symName: __ZNKSt3__119ostreambuf_iteratorIcNS_11char_traitsIcEEE6failedB7v160006Ev, symObjAddr: 0x1780, symBinAddr: 0x1000041A0, symSize: 0x20 }
  - { offsetInCU: 0x80D7, offset: 0x861A, size: 0x8, addend: 0x0, symName: __ZNSt3__19basic_iosIcNS_11char_traitsIcEEE8setstateB7v160006Ej, symObjAddr: 0x17A0, symBinAddr: 0x1000041C0, symSize: 0x30 }
  - { offsetInCU: 0x810A, offset: 0x864D, size: 0x8, addend: 0x0, symName: __ZNKSt3__18ios_base5widthB7v160006Ev, symObjAddr: 0x17D0, symBinAddr: 0x1000041F0, symSize: 0x20 }
  - { offsetInCU: 0x8131, offset: 0x8674, size: 0x8, addend: 0x0, symName: __ZNSt3__115basic_streambufIcNS_11char_traitsIcEEE5sputnB7v160006EPKcl, symObjAddr: 0x17F0, symBinAddr: 0x100004210, symSize: 0x30 }
  - { offsetInCU: 0x8172, offset: 0x86B5, size: 0x8, addend: 0x0, symName: __ZNSt3__112basic_stringIcNS_11char_traitsIcEENS_9allocatorIcEEEC1B7v160006Emc, symObjAddr: 0x1820, symBinAddr: 0x100004240, symSize: 0x30 }
  - { offsetInCU: 0x81B9, offset: 0x86FC, size: 0x8, addend: 0x0, symName: __ZNKSt3__112basic_stringIcNS_11char_traitsIcEENS_9allocatorIcEEE4dataB7v160006Ev, symObjAddr: 0x1850, symBinAddr: 0x100004270, symSize: 0x30 }
  - { offsetInCU: 0x81DD, offset: 0x8720, size: 0x8, addend: 0x0, symName: __ZNSt3__18ios_base5widthB7v160006El, symObjAddr: 0x1880, symBinAddr: 0x1000042A0, symSize: 0x30 }
  - { offsetInCU: 0x8222, offset: 0x8765, size: 0x8, addend: 0x0, symName: __ZNSt3__112basic_stringIcNS_11char_traitsIcEENS_9allocatorIcEEEC2B7v160006Emc, symObjAddr: 0x18B0, symBinAddr: 0x1000042D0, symSize: 0x50 }
  - { offsetInCU: 0x826E, offset: 0x87B1, size: 0x8, addend: 0x0, symName: __ZNSt3__117__compressed_pairINS_12basic_stringIcNS_11char_traitsIcEENS_9allocatorIcEEE5__repES5_EC1B7v160006INS_18__default_init_tagESA_EEOT_OT0_, symObjAddr: 0x1900, symBinAddr: 0x100004320, symSize: 0x30 }
  - { offsetInCU: 0x82C5, offset: 0x8808, size: 0x8, addend: 0x0, symName: __ZNSt3__117__compressed_pairINS_12basic_stringIcNS_11char_traitsIcEENS_9allocatorIcEEE5__repES5_EC2B7v160006INS_18__default_init_tagESA_EEOT_OT0_, symObjAddr: 0x1940, symBinAddr: 0x100004360, symSize: 0x30 }
  - { offsetInCU: 0x831C, offset: 0x885F, size: 0x8, addend: 0x0, symName: __ZNSt3__122__compressed_pair_elemINS_12basic_stringIcNS_11char_traitsIcEENS_9allocatorIcEEE5__repELi0ELb0EEC2B7v160006ENS_18__default_init_tagE, symObjAddr: 0x1970, symBinAddr: 0x100004390, symSize: 0x10 }
  - { offsetInCU: 0x8350, offset: 0x8893, size: 0x8, addend: 0x0, symName: __ZNSt3__122__compressed_pair_elemINS_9allocatorIcEELi1ELb1EEC2B7v160006ENS_18__default_init_tagE, symObjAddr: 0x1980, symBinAddr: 0x1000043A0, symSize: 0x20 }
  - { offsetInCU: 0x8384, offset: 0x88C7, size: 0x8, addend: 0x0, symName: __ZNSt3__19allocatorIcEC2B7v160006Ev, symObjAddr: 0x19A0, symBinAddr: 0x1000043C0, symSize: 0x20 }
  - { offsetInCU: 0x83AD, offset: 0x88F0, size: 0x8, addend: 0x0, symName: __ZNSt3__116__non_trivial_ifILb1ENS_9allocatorIcEEEC2B7v160006Ev, symObjAddr: 0x19C0, symBinAddr: 0x1000043E0, symSize: 0x10 }
  - { offsetInCU: 0x83D6, offset: 0x8919, size: 0x8, addend: 0x0, symName: __ZNKSt3__112basic_stringIcNS_11char_traitsIcEENS_9allocatorIcEEE13__get_pointerB7v160006Ev, symObjAddr: 0x19E0, symBinAddr: 0x100004400, symSize: 0x50 }
  - { offsetInCU: 0x83FB, offset: 0x893E, size: 0x8, addend: 0x0, symName: __ZNKSt3__112basic_stringIcNS_11char_traitsIcEENS_9allocatorIcEEE9__is_longB7v160006Ev, symObjAddr: 0x1A30, symBinAddr: 0x100004450, symSize: 0x60 }
  - { offsetInCU: 0x8420, offset: 0x8963, size: 0x8, addend: 0x0, symName: __ZNKSt3__112basic_stringIcNS_11char_traitsIcEENS_9allocatorIcEEE18__get_long_pointerB7v160006Ev, symObjAddr: 0x1A90, symBinAddr: 0x1000044B0, symSize: 0x20 }
  - { offsetInCU: 0x8445, offset: 0x8988, size: 0x8, addend: 0x0, symName: __ZNKSt3__112basic_stringIcNS_11char_traitsIcEENS_9allocatorIcEEE19__get_short_pointerB7v160006Ev, symObjAddr: 0x1AB0, symBinAddr: 0x1000044D0, symSize: 0x30 }
  - { offsetInCU: 0x846A, offset: 0x89AD, size: 0x8, addend: 0x0, symName: __ZNKSt3__117__compressed_pairINS_12basic_stringIcNS_11char_traitsIcEENS_9allocatorIcEEE5__repES5_E5firstB7v160006Ev, symObjAddr: 0x1AF0, symBinAddr: 0x100004510, symSize: 0x20 }
  - { offsetInCU: 0x848F, offset: 0x89D2, size: 0x8, addend: 0x0, symName: __ZNKSt3__122__compressed_pair_elemINS_12basic_stringIcNS_11char_traitsIcEENS_9allocatorIcEEE5__repELi0ELb0EE5__getB7v160006Ev, symObjAddr: 0x1B10, symBinAddr: 0x100004530, symSize: 0x10 }
  - { offsetInCU: 0x84B4, offset: 0x89F7, size: 0x8, addend: 0x0, symName: __ZNSt3__114pointer_traitsIPKcE10pointer_toB7v160006ERS1_, symObjAddr: 0x1B20, symBinAddr: 0x100004540, symSize: 0x10 }
  - { offsetInCU: 0x84D7, offset: 0x8A1A, size: 0x8, addend: 0x0, symName: __ZNSt3__119ostreambuf_iteratorIcNS_11char_traitsIcEEEC2B7v160006ERNS_13basic_ostreamIcS2_EE, symObjAddr: 0x1B30, symBinAddr: 0x100004550, symSize: 0x60 }
  - { offsetInCU: 0x850D, offset: 0x8A50, size: 0x8, addend: 0x0, symName: __ZNKSt3__19basic_iosIcNS_11char_traitsIcEEE5rdbufB7v160006Ev, symObjAddr: 0x1B90, symBinAddr: 0x1000045B0, symSize: 0x20 }
  - { offsetInCU: 0x8534, offset: 0x8A77, size: 0x8, addend: 0x0, symName: __ZNKSt3__18ios_base5rdbufB7v160006Ev, symObjAddr: 0x1BB0, symBinAddr: 0x1000045D0, symSize: 0x20 }
  - { offsetInCU: 0x8559, offset: 0x8A9C, size: 0x8, addend: 0x0, symName: __ZNSt3__111char_traitsIcE11eq_int_typeEii, symObjAddr: 0x1BD0, symBinAddr: 0x1000045F0, symSize: 0x20 }
  - { offsetInCU: 0x8589, offset: 0x8ACC, size: 0x8, addend: 0x0, symName: __ZNKSt3__19basic_iosIcNS_11char_traitsIcEEE5widenB7v160006Ec, symObjAddr: 0x1BF0, symBinAddr: 0x100004610, symSize: 0x90 }
  - { offsetInCU: 0x85F6, offset: 0x8B39, size: 0x8, addend: 0x0, symName: __ZNKSt3__15ctypeIcE5widenB7v160006Ec, symObjAddr: 0x1CB0, symBinAddr: 0x1000046D0, symSize: 0x30 }
  - { offsetInCU: 0x8629, offset: 0x8B6C, size: 0x8, addend: 0x0, symName: __ZNSt3__18ios_base8setstateB7v160006Ej, symObjAddr: 0x1CE0, symBinAddr: 0x100004700, symSize: 0x30 }
  - { offsetInCU: 0x26, offset: 0x8C2B, size: 0x8, addend: 0x0, symName: __Z13increment_x_yPiS_S_iiii, symObjAddr: 0x0, symBinAddr: 0x100004750, symSize: 0x70 }
  - { offsetInCU: 0x28BA, offset: 0xB4BF, size: 0x8, addend: 0x0, symName: __Z13increment_x_yPiS_S_iiii, symObjAddr: 0x0, symBinAddr: 0x100004750, symSize: 0x70 }
  - { offsetInCU: 0x2936, offset: 0xB53B, size: 0x8, addend: 0x0, symName: __Z13plot_line_lowP11FrameBufferiiii, symObjAddr: 0x70, symBinAddr: 0x1000047C0, symSize: 0xE0 }
  - { offsetInCU: 0x29FC, offset: 0xB601, size: 0x8, addend: 0x0, symName: __Z14plot_line_highP11FrameBufferiiii, symObjAddr: 0x150, symBinAddr: 0x1000048A0, symSize: 0xE0 }
  - { offsetInCU: 0x2AC2, offset: 0xB6C7, size: 0x8, addend: 0x0, symName: __Z11draw_x_lineP11FrameBufferiiii, symObjAddr: 0x230, symBinAddr: 0x100004980, symSize: 0x70 }
  - { offsetInCU: 0x2B26, offset: 0xB72B, size: 0x8, addend: 0x0, symName: __Z11draw_y_lineP11FrameBufferiiii, symObjAddr: 0x2A0, symBinAddr: 0x1000049F0, symSize: 0x70 }
  - { offsetInCU: 0x2B8A, offset: 0xB78F, size: 0x8, addend: 0x0, symName: __Z9draw_lineP11FrameBufferiiii, symObjAddr: 0x310, symBinAddr: 0x100004A60, symSize: 0xBC }
  - { offsetInCU: 0xBF76, offset: 0x17773, size: 0x8, addend: 0x0, symName: __ZNSt3__17getlineB7v160006IcNS_11char_traitsIcEENS_9allocatorIcEEEERNS_13basic_istreamIT_T0_EES9_RNS_12basic_stringIS6_S7_T1_EE, symObjAddr: 0x670, symBinAddr: 0x100005180, symSize: 0x50 }
  - { offsetInCU: 0xC31C, offset: 0x17B19, size: 0x8, addend: 0x0, symName: __ZNSt3__17getlineB7v160006IcNS_11char_traitsIcEENS_9allocatorIcEEEERNS_13basic_istreamIT_T0_EES9_RNS_12basic_stringIS6_S7_T1_EES6_, symObjAddr: 0xD40, symBinAddr: 0x100005850, symSize: 0x220 }
  - { offsetInCU: 0xC3E5, offset: 0x17BE2, size: 0x8, addend: 0x0, symName: __ZNSt3__118__debug_db_erase_cB7v160006INS_6vectorI6VertexNS_9allocatorIS2_EEEEEEvPT_, symObjAddr: 0x1BF0, symBinAddr: 0x100006700, symSize: 0x10 }
  - { offsetInCU: 0xC416, offset: 0x17C13, size: 0x8, addend: 0x0, symName: __ZNSt3__112__to_addressB7v160006I6VertexEEPT_S3_, symObjAddr: 0x1D00, symBinAddr: 0x100006810, symSize: 0x10 }
  - { offsetInCU: 0xC44B, offset: 0x17C48, size: 0x8, addend: 0x0, symName: __ZNSt3__119__libcpp_deallocateB7v160006EPvmm, symObjAddr: 0x1E60, symBinAddr: 0x100006960, symSize: 0x30 }
  - { offsetInCU: 0xC494, offset: 0x17C91, size: 0x8, addend: 0x0, symName: __ZNSt3__127__do_deallocate_handle_sizeB7v160006IJEEEvPvmDpT_, symObjAddr: 0x1E90, symBinAddr: 0x100006990, symSize: 0x20 }
  - { offsetInCU: 0xC4D4, offset: 0x17CD1, size: 0x8, addend: 0x0, symName: __ZNSt3__124__libcpp_operator_deleteB7v160006IJPvEEEvDpT_, symObjAddr: 0x1EB0, symBinAddr: 0x1000069B0, symSize: 0x20 }
  - { offsetInCU: 0xC50C, offset: 0x17D09, size: 0x8, addend: 0x0, symName: __ZNSt3__118__debug_db_erase_cB7v160006INS_6vectorINS1_IiNS_9allocatorIiEEEENS2_IS4_EEEEEEvPT_, symObjAddr: 0x2110, symBinAddr: 0x100006C10, symSize: 0x10 }
  - { offsetInCU: 0xC53D, offset: 0x17D3A, size: 0x8, addend: 0x0, symName: __ZNSt3__112__to_addressB7v160006INS_6vectorIiNS_9allocatorIiEEEEEEPT_S6_, symObjAddr: 0x2240, symBinAddr: 0x100006D40, symSize: 0x10 }
  - { offsetInCU: 0xC572, offset: 0x17D6F, size: 0x8, addend: 0x0, symName: __ZNSt3__119__debug_db_insert_cB7v160006INS_6vectorI6VertexNS_9allocatorIS2_EEEEEEvPT_, symObjAddr: 0x24B0, symBinAddr: 0x100006FB0, symSize: 0x10 }
  - { offsetInCU: 0xC5A3, offset: 0x17DA0, size: 0x8, addend: 0x0, symName: __ZNSt3__119__debug_db_insert_cB7v160006INS_6vectorINS1_IiNS_9allocatorIiEEEENS2_IS4_EEEEEEvPT_, symObjAddr: 0x25F0, symBinAddr: 0x1000070F0, symSize: 0x10 }
  - { offsetInCU: 0xC5D4, offset: 0x17DD1, size: 0x8, addend: 0x0, symName: __ZNSt3__117__libcpp_allocateB7v160006Emm, symObjAddr: 0x2E10, symBinAddr: 0x100007700, symSize: 0x20 }
  - { offsetInCU: 0xC611, offset: 0x17E0E, size: 0x8, addend: 0x0, symName: __ZNSt3__121__libcpp_operator_newB7v160006IJmEEEPvDpT_, symObjAddr: 0x2E50, symBinAddr: 0x100007740, symSize: 0x20 }
  - { offsetInCU: 0xC64C, offset: 0x17E49, size: 0x8, addend: 0x0, symName: __ZNSt3__118__debug_db_erase_cB7v160006INS_6vectorINS_12basic_stringIcNS_11char_traitsIcEENS_9allocatorIcEEEENS5_IS7_EEEEEEvPT_, symObjAddr: 0x3190, symBinAddr: 0x100007990, symSize: 0x10 }
  - { offsetInCU: 0xC67D, offset: 0x17E7A, size: 0x8, addend: 0x0, symName: __ZNSt3__112__to_addressB7v160006INS_12basic_stringIcNS_11char_traitsIcEENS_9allocatorIcEEEEEEPT_S8_, symObjAddr: 0x3290, symBinAddr: 0x100007A90, symSize: 0x10 }
  - { offsetInCU: 0xC6E5, offset: 0x17EE2, size: 0x8, addend: 0x0, symName: __ZNSt3__119__debug_db_insert_cB7v160006INS_6vectorINS_12basic_stringIcNS_11char_traitsIcEENS_9allocatorIcEEEENS5_IS7_EEEEEEvPT_, symObjAddr: 0x38F0, symBinAddr: 0x100008060, symSize: 0x10 }
  - { offsetInCU: 0xC716, offset: 0x17F13, size: 0x8, addend: 0x0, symName: __ZNSt3__125__debug_db_invalidate_allB7v160006INS_12basic_stringIcNS_11char_traitsIcEENS_9allocatorIcEEEEEEvPT_, symObjAddr: 0x3C60, symBinAddr: 0x100008390, symSize: 0x10 }
  - { offsetInCU: 0xC953, offset: 0x18150, size: 0x8, addend: 0x0, symName: __ZNSt3__13maxB7v160006ImEERKT_S3_S3_, symObjAddr: 0x42F0, symBinAddr: 0x100008A00, symSize: 0x30 }
  - { offsetInCU: 0xC996, offset: 0x18193, size: 0x8, addend: 0x0, symName: __ZNSt3__13minB7v160006ImEERKT_S3_S3_, symObjAddr: 0x4320, symBinAddr: 0x100008A30, symSize: 0x30 }
  - { offsetInCU: 0xCBE4, offset: 0x183E1, size: 0x8, addend: 0x0, symName: __ZNSt3__13minB7v160006ImNS_6__lessImmEEEERKT_S5_S5_T0_, symObjAddr: 0x43A0, symBinAddr: 0x100008AB0, symSize: 0x50 }
  - { offsetInCU: 0xCC79, offset: 0x18476, size: 0x8, addend: 0x0, symName: __ZNSt3__120__throw_length_errorB7v160006EPKc, symObjAddr: 0x4480, symBinAddr: 0x100008B90, symSize: 0x70 }
  - { offsetInCU: 0xCCA2, offset: 0x1849F, size: 0x8, addend: 0x0, symName: __ZNSt3__13maxB7v160006ImNS_6__lessImmEEEERKT_S5_S5_T0_, symObjAddr: 0x4560, symBinAddr: 0x100008C70, symSize: 0x50 }
  - { offsetInCU: 0xCCFC, offset: 0x184F9, size: 0x8, addend: 0x0, symName: __ZNSt3__119__allocate_at_leastB7v160006INS_9allocatorINS_12basic_stringIcNS_11char_traitsIcEENS1_IcEEEEEEEENS_19__allocation_resultINS_16allocator_traitsIT_E7pointerEEERSA_m, symObjAddr: 0x46A0, symBinAddr: 0x100008DB0, symSize: 0x40 }
  - { offsetInCU: 0xCD3F, offset: 0x1853C, size: 0x8, addend: 0x0, symName: __ZNSt3__142__uninitialized_allocator_move_if_noexceptB7v160006INS_9allocatorINS_12basic_stringIcNS_11char_traitsIcEENS1_IcEEEEEENS_16reverse_iteratorIPS6_EESA_SA_EET2_RT_T0_T1_SB_, symObjAddr: 0x4860, symBinAddr: 0x100008F70, symSize: 0x190 }
  - { offsetInCU: 0xCDDE, offset: 0x185DB, size: 0x8, addend: 0x0, symName: __ZNSt3__14swapB7v160006IPNS_12basic_stringIcNS_11char_traitsIcEENS_9allocatorIcEEEEEEvRT_S9_, symObjAddr: 0x4A40, symBinAddr: 0x100009150, symSize: 0x40 }
  - { offsetInCU: 0xCE2F, offset: 0x1862C, size: 0x8, addend: 0x0, symName: __ZNSt3__125__debug_db_invalidate_allB7v160006INS_6vectorINS_12basic_stringIcNS_11char_traitsIcEENS_9allocatorIcEEEENS5_IS7_EEEEEEvPT_, symObjAddr: 0x4B20, symBinAddr: 0x100009230, symSize: 0x10 }
  - { offsetInCU: 0xCE60, offset: 0x1865D, size: 0x8, addend: 0x0, symName: __ZNSt3__122__make_exception_guardB7v160006INS_29_AllocatorDestroyRangeReverseINS_9allocatorINS_12basic_stringIcNS_11char_traitsIcEENS2_IcEEEEEENS_16reverse_iteratorIPS7_EEEEEENS_28__exception_guard_exceptionsIT_EESE_, symObjAddr: 0x4B30, symBinAddr: 0x100009240, symSize: 0x60 }
  - { offsetInCU: 0xCE95, offset: 0x18692, size: 0x8, addend: 0x0, symName: __ZNSt3__1neB7v160006IPNS_12basic_stringIcNS_11char_traitsIcEENS_9allocatorIcEEEES7_EEbRKNS_16reverse_iteratorIT_EERKNS8_IT0_EE, symObjAddr: 0x4BD0, symBinAddr: 0x1000092E0, symSize: 0x40 }
  - { offsetInCU: 0xCEE1, offset: 0x186DE, size: 0x8, addend: 0x0, symName: __ZNSt3__112__to_addressB7v160006INS_16reverse_iteratorIPNS_12basic_stringIcNS_11char_traitsIcEENS_9allocatorIcEEEEEEvEENS_5decayIDTclsr19__to_address_helperIT_EE6__callclsr3stdE7declvalIRKSB_EEEEE4typeESD_, symObjAddr: 0x4C10, symBinAddr: 0x100009320, symSize: 0x20 }
  - { offsetInCU: 0xCF42, offset: 0x1873F, size: 0x8, addend: 0x0, symName: __ZNSt3__119__allocator_destroyB7v160006INS_9allocatorINS_12basic_stringIcNS_11char_traitsIcEENS1_IcEEEEEENS_16reverse_iteratorINS8_IPS6_EEEESB_EEvRT_T0_T1_, symObjAddr: 0x4F00, symBinAddr: 0x100009610, symSize: 0x70 }
  - { offsetInCU: 0xCFA6, offset: 0x187A3, size: 0x8, addend: 0x0, symName: __ZNSt3__1neB7v160006INS_16reverse_iteratorIPNS_12basic_stringIcNS_11char_traitsIcEENS_9allocatorIcEEEEEES9_EEbRKNS1_IT_EERKNS1_IT0_EE, symObjAddr: 0x4FA0, symBinAddr: 0x1000096B0, symSize: 0x50 }
  - { offsetInCU: 0xCFF2, offset: 0x187EF, size: 0x8, addend: 0x0, symName: __ZNSt3__112__to_addressB7v160006INS_16reverse_iteratorINS1_IPNS_12basic_stringIcNS_11char_traitsIcEENS_9allocatorIcEEEEEEEEvEENS_5decayIDTclsr19__to_address_helperIT_EE6__callclsr3stdE7declvalIRKSC_EEEEE4typeESE_, symObjAddr: 0x4FF0, symBinAddr: 0x100009700, symSize: 0x20 }
  - { offsetInCU: 0xD053, offset: 0x18850, size: 0x8, addend: 0x0, symName: __ZNSt3__122__make_exception_guardB7v160006INS_6vectorINS_12basic_stringIcNS_11char_traitsIcEENS_9allocatorIcEEEENS5_IS7_EEE16__destroy_vectorEEENS_28__exception_guard_exceptionsIT_EESC_, symObjAddr: 0x54A0, symBinAddr: 0x100009BB0, symSize: 0x40 }
  - { offsetInCU: 0xD088, offset: 0x18885, size: 0x8, addend: 0x0, symName: __ZNSt3__130__uninitialized_allocator_copyB7v160006INS_9allocatorINS_12basic_stringIcNS_11char_traitsIcEENS1_IcEEEEEEPS6_S8_S8_EET2_RT_T0_T1_S9_, symObjAddr: 0x5700, symBinAddr: 0x100009E10, symSize: 0x110 }
  - { offsetInCU: 0xD126, offset: 0x18923, size: 0x8, addend: 0x0, symName: __ZNSt3__122__make_exception_guardB7v160006INS_29_AllocatorDestroyRangeReverseINS_9allocatorINS_12basic_stringIcNS_11char_traitsIcEENS2_IcEEEEEEPS7_EEEENS_28__exception_guard_exceptionsIT_EESC_, symObjAddr: 0x5810, symBinAddr: 0x100009F20, symSize: 0x60 }
  - { offsetInCU: 0xD15B, offset: 0x18958, size: 0x8, addend: 0x0, symName: __ZNSt3__119__allocator_destroyB7v160006INS_9allocatorINS_12basic_stringIcNS_11char_traitsIcEENS1_IcEEEEEENS_16reverse_iteratorIPS6_EESA_EEvRT_T0_T1_, symObjAddr: 0x5A90, symBinAddr: 0x10000A1A0, symSize: 0x70 }
  - { offsetInCU: 0xD1BF, offset: 0x189BC, size: 0x8, addend: 0x0, symName: __ZNSt3__119__allocate_at_leastB7v160006INS_9allocatorI6VertexEEEENS_19__allocation_resultINS_16allocator_traitsIT_E7pointerEEERS6_m, symObjAddr: 0x6260, symBinAddr: 0x10000A970, symSize: 0x40 }
  - { offsetInCU: 0xD202, offset: 0x189FF, size: 0x8, addend: 0x0, symName: __ZNSt3__142__uninitialized_allocator_move_if_noexceptB7v160006INS_9allocatorI6VertexEENS_16reverse_iteratorIPS2_EES6_S6_EET2_RT_T0_T1_S7_, symObjAddr: 0x6420, symBinAddr: 0x10000AB30, symSize: 0x190 }
  - { offsetInCU: 0xD2A1, offset: 0x18A9E, size: 0x8, addend: 0x0, symName: __ZNSt3__14swapB7v160006IP6VertexEEvRT_S4_, symObjAddr: 0x6600, symBinAddr: 0x10000AD10, symSize: 0x40 }
  - { offsetInCU: 0xD2F2, offset: 0x18AEF, size: 0x8, addend: 0x0, symName: __ZNSt3__125__debug_db_invalidate_allB7v160006INS_6vectorI6VertexNS_9allocatorIS2_EEEEEEvPT_, symObjAddr: 0x66F0, symBinAddr: 0x10000AE00, symSize: 0x10 }
  - { offsetInCU: 0xD323, offset: 0x18B20, size: 0x8, addend: 0x0, symName: __ZNSt3__122__make_exception_guardB7v160006INS_29_AllocatorDestroyRangeReverseINS_9allocatorI6VertexEENS_16reverse_iteratorIPS3_EEEEEENS_28__exception_guard_exceptionsIT_EESA_, symObjAddr: 0x6700, symBinAddr: 0x10000AE10, symSize: 0x60 }
  - { offsetInCU: 0xD358, offset: 0x18B55, size: 0x8, addend: 0x0, symName: __ZNSt3__1neB7v160006IP6VertexS2_EEbRKNS_16reverse_iteratorIT_EERKNS3_IT0_EE, symObjAddr: 0x67A0, symBinAddr: 0x10000AEB0, symSize: 0x40 }
  - { offsetInCU: 0xD3A4, offset: 0x18BA1, size: 0x8, addend: 0x0, symName: __ZNSt3__112__to_addressB7v160006INS_16reverse_iteratorIP6VertexEEvEENS_5decayIDTclsr19__to_address_helperIT_EE6__callclsr3stdE7declvalIRKS6_EEEEE4typeES8_, symObjAddr: 0x6810, symBinAddr: 0x10000AF20, symSize: 0x20 }
  - { offsetInCU: 0xD405, offset: 0x18C02, size: 0x8, addend: 0x0, symName: __ZNSt3__119__allocator_destroyB7v160006INS_9allocatorI6VertexEENS_16reverse_iteratorINS4_IPS2_EEEES7_EEvRT_T0_T1_, symObjAddr: 0x6B30, symBinAddr: 0x10000B240, symSize: 0x70 }
  - { offsetInCU: 0xD469, offset: 0x18C66, size: 0x8, addend: 0x0, symName: __ZNSt3__1neB7v160006INS_16reverse_iteratorIP6VertexEES4_EEbRKNS1_IT_EERKNS1_IT0_EE, symObjAddr: 0x6BD0, symBinAddr: 0x10000B2E0, symSize: 0x50 }
  - { offsetInCU: 0xD4B5, offset: 0x18CB2, size: 0x8, addend: 0x0, symName: __ZNSt3__112__to_addressB7v160006INS_16reverse_iteratorINS1_IP6VertexEEEEvEENS_5decayIDTclsr19__to_address_helperIT_EE6__callclsr3stdE7declvalIRKS7_EEEEE4typeES9_, symObjAddr: 0x6C20, symBinAddr: 0x10000B330, symSize: 0x20 }
  - { offsetInCU: 0xD516, offset: 0x18D13, size: 0x8, addend: 0x0, symName: __ZNSt3__119__debug_db_insert_cB7v160006INS_6vectorIiNS_9allocatorIiEEEEEEvPT_, symObjAddr: 0x6FF0, symBinAddr: 0x10000B700, symSize: 0x10 }
  - { offsetInCU: 0xD547, offset: 0x18D44, size: 0x8, addend: 0x0, symName: __ZNSt3__118__debug_db_erase_cB7v160006INS_6vectorIiNS_9allocatorIiEEEEEEvPT_, symObjAddr: 0x7270, symBinAddr: 0x10000B980, symSize: 0x10 }
  - { offsetInCU: 0xD578, offset: 0x18D75, size: 0x8, addend: 0x0, symName: __ZNSt3__112__to_addressB7v160006IiEEPT_S2_, symObjAddr: 0x7380, symBinAddr: 0x10000BA90, symSize: 0x10 }
  - { offsetInCU: 0xD5AD, offset: 0x18DAA, size: 0x8, addend: 0x0, symName: __ZNSt3__115__debug_db_swapB7v160006INS_6vectorIiNS_9allocatorIiEEEEEEvPT_S6_, symObjAddr: 0x7940, symBinAddr: 0x10000C050, symSize: 0x10 }
  - { offsetInCU: 0xD5EC, offset: 0x18DE9, size: 0x8, addend: 0x0, symName: __ZNSt3__119__allocate_at_leastB7v160006INS_9allocatorINS_6vectorIiNS1_IiEEEEEEEENS_19__allocation_resultINS_16allocator_traitsIT_E7pointerEEERS8_m, symObjAddr: 0x7E50, symBinAddr: 0x10000C560, symSize: 0x40 }
  - { offsetInCU: 0xD62F, offset: 0x18E2C, size: 0x8, addend: 0x0, symName: __ZNSt3__142__uninitialized_allocator_move_if_noexceptB7v160006INS_9allocatorINS_6vectorIiNS1_IiEEEEEENS_16reverse_iteratorIPS4_EES8_S8_EET2_RT_T0_T1_S9_, symObjAddr: 0x8010, symBinAddr: 0x10000C720, symSize: 0x190 }
  - { offsetInCU: 0xD6CE, offset: 0x18ECB, size: 0x8, addend: 0x0, symName: __ZNSt3__14swapB7v160006IPNS_6vectorIiNS_9allocatorIiEEEEEEvRT_S7_, symObjAddr: 0x81F0, symBinAddr: 0x10000C900, symSize: 0x40 }
  - { offsetInCU: 0xD71F, offset: 0x18F1C, size: 0x8, addend: 0x0, symName: __ZNSt3__125__debug_db_invalidate_allB7v160006INS_6vectorINS1_IiNS_9allocatorIiEEEENS2_IS4_EEEEEEvPT_, symObjAddr: 0x82D0, symBinAddr: 0x10000C9E0, symSize: 0x10 }
  - { offsetInCU: 0xD750, offset: 0x18F4D, size: 0x8, addend: 0x0, symName: __ZNSt3__122__make_exception_guardB7v160006INS_29_AllocatorDestroyRangeReverseINS_9allocatorINS_6vectorIiNS2_IiEEEEEENS_16reverse_iteratorIPS5_EEEEEENS_28__exception_guard_exceptionsIT_EESC_, symObjAddr: 0x82E0, symBinAddr: 0x10000C9F0, symSize: 0x60 }
  - { offsetInCU: 0xD785, offset: 0x18F82, size: 0x8, addend: 0x0, symName: __ZNSt3__1neB7v160006IPNS_6vectorIiNS_9allocatorIiEEEES5_EEbRKNS_16reverse_iteratorIT_EERKNS6_IT0_EE, symObjAddr: 0x8380, symBinAddr: 0x10000CA90, symSize: 0x40 }
  - { offsetInCU: 0xD7D1, offset: 0x18FCE, size: 0x8, addend: 0x0, symName: __ZNSt3__112__to_addressB7v160006INS_16reverse_iteratorIPNS_6vectorIiNS_9allocatorIiEEEEEEvEENS_5decayIDTclsr19__to_address_helperIT_EE6__callclsr3stdE7declvalIRKS9_EEEEE4typeESB_, symObjAddr: 0x83F0, symBinAddr: 0x10000CB00, symSize: 0x20 }
  - { offsetInCU: 0xD808, offset: 0x19005, size: 0x8, addend: 0x0, symName: __ZNSt3__122__make_exception_guardB7v160006INS_6vectorIiNS_9allocatorIiEEE16__destroy_vectorEEENS_28__exception_guard_exceptionsIT_EES7_, symObjAddr: 0x86F0, symBinAddr: 0x10000CE00, symSize: 0x40 }
  - { offsetInCU: 0xD83D, offset: 0x1903A, size: 0x8, addend: 0x0, symName: __ZNSt3__119__allocate_at_leastB7v160006INS_9allocatorIiEEEENS_19__allocation_resultINS_16allocator_traitsIT_E7pointerEEERS5_m, symObjAddr: 0x89C0, symBinAddr: 0x10000D0D0, symSize: 0x40 }
  - { offsetInCU: 0xD880, offset: 0x1907D, size: 0x8, addend: 0x0, symName: __ZNSt3__130__uninitialized_allocator_copyB7v160006INS_9allocatorIiEEPiS3_S3_EET2_RT_T0_T1_S4_, symObjAddr: 0x8BA0, symBinAddr: 0x10000D2B0, symSize: 0x110 }
  - { offsetInCU: 0xD91E, offset: 0x1911B, size: 0x8, addend: 0x0, symName: __ZNSt3__122__make_exception_guardB7v160006INS_29_AllocatorDestroyRangeReverseINS_9allocatorIiEEPiEEEENS_28__exception_guard_exceptionsIT_EES7_, symObjAddr: 0x8D10, symBinAddr: 0x10000D420, symSize: 0x60 }
  - { offsetInCU: 0xD953, offset: 0x19150, size: 0x8, addend: 0x0, symName: __ZNSt3__119__allocator_destroyB7v160006INS_9allocatorIiEENS_16reverse_iteratorIPiEES5_EEvRT_T0_T1_, symObjAddr: 0x8F80, symBinAddr: 0x10000D690, symSize: 0x70 }
  - { offsetInCU: 0xD9B7, offset: 0x191B4, size: 0x8, addend: 0x0, symName: __ZNSt3__1neB7v160006IPiS1_EEbRKNS_16reverse_iteratorIT_EERKNS2_IT0_EE, symObjAddr: 0x9020, symBinAddr: 0x10000D730, symSize: 0x40 }
  - { offsetInCU: 0xDA03, offset: 0x19200, size: 0x8, addend: 0x0, symName: __ZNSt3__112__to_addressB7v160006INS_16reverse_iteratorIPiEEvEENS_5decayIDTclsr19__to_address_helperIT_EE6__callclsr3stdE7declvalIRKS5_EEEEE4typeES7_, symObjAddr: 0x9060, symBinAddr: 0x10000D770, symSize: 0x20 }
  - { offsetInCU: 0xDA8E, offset: 0x1928B, size: 0x8, addend: 0x0, symName: __ZNSt3__119__allocator_destroyB7v160006INS_9allocatorINS_6vectorIiNS1_IiEEEEEENS_16reverse_iteratorINS6_IPS4_EEEES9_EEvRT_T0_T1_, symObjAddr: 0x9370, symBinAddr: 0x10000DA80, symSize: 0x70 }
  - { offsetInCU: 0xDAF2, offset: 0x192EF, size: 0x8, addend: 0x0, symName: __ZNSt3__1neB7v160006INS_16reverse_iteratorIPNS_6vectorIiNS_9allocatorIiEEEEEES7_EEbRKNS1_IT_EERKNS1_IT0_EE, symObjAddr: 0x9410, symBinAddr: 0x10000DB20, symSize: 0x50 }
  - { offsetInCU: 0xDB3E, offset: 0x1933B, size: 0x8, addend: 0x0, symName: __ZNSt3__112__to_addressB7v160006INS_16reverse_iteratorINS1_IPNS_6vectorIiNS_9allocatorIiEEEEEEEEvEENS_5decayIDTclsr19__to_address_helperIT_EE6__callclsr3stdE7declvalIRKSA_EEEEE4typeESC_, symObjAddr: 0x9460, symBinAddr: 0x10000DB70, symSize: 0x20 }
  - { offsetInCU: 0xDB9F, offset: 0x1939C, size: 0x8, addend: 0x0, symName: __ZNSt3__142__uninitialized_allocator_move_if_noexceptB7v160006INS_9allocatorIiEENS_16reverse_iteratorIPiEES5_ivEET1_RT_T0_S9_S6_, symObjAddr: 0x9DC0, symBinAddr: 0x10000E4D0, symSize: 0x120 }
  - { offsetInCU: 0xDC1D, offset: 0x1941A, size: 0x8, addend: 0x0, symName: __ZNSt3__14swapB7v160006IPiEEvRT_S3_, symObjAddr: 0x9EE0, symBinAddr: 0x10000E5F0, symSize: 0x40 }
  - { offsetInCU: 0xDC6E, offset: 0x1946B, size: 0x8, addend: 0x0, symName: __ZNSt3__125__debug_db_invalidate_allB7v160006INS_6vectorIiNS_9allocatorIiEEEEEEvPT_, symObjAddr: 0x9F20, symBinAddr: 0x10000E630, symSize: 0x10 }
  - { offsetInCU: 0xDCC6, offset: 0x194C3, size: 0x8, addend: 0x0, symName: __ZNSt3__114__construct_atB7v160006IiJiEPiEEPT_S3_DpOT0_, symObjAddr: 0x9F30, symBinAddr: 0x10000E640, symSize: 0x30 }
  - { offsetInCU: 0xDD3B, offset: 0x19538, size: 0x8, addend: 0x0, symName: __ZNSt3__14moveB7v160006INS_16reverse_iteratorIPiEES3_EET0_T_S5_S4_, symObjAddr: 0x9F60, symBinAddr: 0x10000E670, symSize: 0x80 }
  - { offsetInCU: 0xDD95, offset: 0x19592, size: 0x8, addend: 0x0, symName: __ZNSt3__16__moveB7v160006INS_17_ClassicAlgPolicyENS_16reverse_iteratorIPiEES4_S4_EENS_4pairIT0_T2_EES6_T1_S7_, symObjAddr: 0x9FE0, symBinAddr: 0x10000E6F0, symSize: 0x90 }
  - { offsetInCU: 0xDE01, offset: 0x195FE, size: 0x8, addend: 0x0, symName: __ZNSt3__123__dispatch_copy_or_moveB7v160006INS_17_ClassicAlgPolicyENS_11__move_loopIS1_EENS_14__move_trivialENS_16reverse_iteratorIPiEES7_S7_EENS_4pairIT2_T4_EES9_T3_SA_, symObjAddr: 0xA070, symBinAddr: 0x10000E780, symSize: 0xB0 }
  - { offsetInCU: 0xDE7F, offset: 0x1967C, size: 0x8, addend: 0x0, symName: __ZNSt3__121__unwrap_and_dispatchB7v160006INS_10__overloadINS_11__move_loopINS_17_ClassicAlgPolicyEEENS_14__move_trivialEEENS_16reverse_iteratorIPiEES9_S9_Li0EEENS_4pairIT0_T2_EESB_T1_SC_, symObjAddr: 0xA120, symBinAddr: 0x10000E830, symSize: 0x210 }
  - { offsetInCU: 0xDF0F, offset: 0x1970C, size: 0x8, addend: 0x0, symName: __ZNSt3__114__unwrap_rangeB7v160006INS_16reverse_iteratorIPiEES3_EENS_4pairIT0_S5_EET_S7_, symObjAddr: 0xA330, symBinAddr: 0x10000EA40, symSize: 0x90 }
  - { offsetInCU: 0xE063, offset: 0x19860, size: 0x8, addend: 0x0, symName: __ZNSt3__113__unwrap_iterB7v160006INS_16reverse_iteratorIPiEENS_18__unwrap_iter_implIS3_Lb0EEELi0EEEDTclsrT0_8__unwrapclsr3stdE7declvalIT_EEEES7_, symObjAddr: 0xA460, symBinAddr: 0x10000EB70, symSize: 0x40 }
  - { offsetInCU: 0xE0A8, offset: 0x198A5, size: 0x8, addend: 0x0, symName: __ZNSt3__19make_pairB7v160006INS_16reverse_iteratorIPiEES3_EENS_4pairINS_18__unwrap_ref_decayIT_E4typeENS5_IT0_E4typeEEEOS6_OS9_, symObjAddr: 0xA4A0, symBinAddr: 0x10000EBB0, symSize: 0x30 }
  - { offsetInCU: 0xE0F7, offset: 0x198F4, size: 0x8, addend: 0x0, symName: __ZNSt3__114__rewrap_rangeB7v160006INS_16reverse_iteratorIPiEES3_EET_S4_T0_, symObjAddr: 0xA4D0, symBinAddr: 0x10000EBE0, symSize: 0x60 }
  - { offsetInCU: 0xE143, offset: 0x19940, size: 0x8, addend: 0x0, symName: __ZNSt3__113__rewrap_iterB7v160006INS_16reverse_iteratorIPiEES3_NS_18__unwrap_iter_implIS3_Lb0EEEEET_S6_T0_, symObjAddr: 0xA530, symBinAddr: 0x10000EC40, symSize: 0x80 }
  - { offsetInCU: 0xE4DC, offset: 0x19CD9, size: 0x8, addend: 0x0, symName: __ZSt28__throw_bad_array_new_lengthB7v160006v, symObjAddr: 0x2DD0, symBinAddr: 0x1000076C0, symSize: 0x40 }
  - { offsetInCU: 0xF5AC, offset: 0x1ADA9, size: 0x8, addend: 0x0, symName: __ZNSt3__16vectorINS_12basic_stringIcNS_11char_traitsIcEENS_9allocatorIcEEEENS4_IS6_EEE26__swap_out_circular_bufferERNS_14__split_bufferIS6_RS7_EE, symObjAddr: 0x4110, symBinAddr: 0x100008820, symSize: 0x130 }
  - { offsetInCU: 0xF683, offset: 0x1AE80, size: 0x8, addend: 0x0, symName: __ZNSt3__16vectorI6VertexNS_9allocatorIS1_EEE26__swap_out_circular_bufferERNS_14__split_bufferIS1_RS3_EE, symObjAddr: 0x5EF0, symBinAddr: 0x10000A600, symSize: 0x130 }
  - { offsetInCU: 0xF719, offset: 0x1AF16, size: 0x8, addend: 0x0, symName: __ZNSt3__16vectorINS0_IiNS_9allocatorIiEEEENS1_IS3_EEE26__swap_out_circular_bufferERNS_14__split_bufferIS3_RS4_EE, symObjAddr: 0x7AF0, symBinAddr: 0x10000C200, symSize: 0x130 }
  - { offsetInCU: 0xF7FF, offset: 0x1AFFC, size: 0x8, addend: 0x0, symName: __ZNSt3__16vectorIiNS_9allocatorIiEEE26__swap_out_circular_bufferERNS_14__split_bufferIiRS2_EE, symObjAddr: 0x9A70, symBinAddr: 0x10000E180, symSize: 0x130 }
  - { offsetInCU: 0x116E0, offset: 0x1CEDD, size: 0x8, addend: 0x0, symName: __ZN8PolyMeshC2EPcb, symObjAddr: 0x0, symBinAddr: 0x100004B20, symSize: 0xE0 }
  - { offsetInCU: 0x11726, offset: 0x1CF23, size: 0x8, addend: 0x0, symName: __ZN6ObjectC2Ev, symObjAddr: 0xE0, symBinAddr: 0x100004C00, symSize: 0x30 }
  - { offsetInCU: 0x1174F, offset: 0x1CF4C, size: 0x8, addend: 0x0, symName: __ZNSt3__16vectorI6VertexNS_9allocatorIS1_EEEC1B7v160006Ev, symObjAddr: 0x110, symBinAddr: 0x100004C30, symSize: 0x20 }
  - { offsetInCU: 0x11778, offset: 0x1CF75, size: 0x8, addend: 0x0, symName: __ZNSt3__16vectorINS0_IiNS_9allocatorIiEEEENS1_IS3_EEEC1B7v160006Ev, symObjAddr: 0x130, symBinAddr: 0x100004C50, symSize: 0x20 }
  - { offsetInCU: 0x117A1, offset: 0x1CF9E, size: 0x8, addend: 0x0, symName: __ZN8PolyMesh9read_fileEPcb, symObjAddr: 0x150, symBinAddr: 0x100004C70, symSize: 0x2C0 }
  - { offsetInCU: 0x1180A, offset: 0x1D007, size: 0x8, addend: 0x0, symName: __ZNSt3__16vectorINS0_IiNS_9allocatorIiEEEENS1_IS3_EEED1B7v160006Ev, symObjAddr: 0x410, symBinAddr: 0x100004F30, symSize: 0x20 }
  - { offsetInCU: 0x11833, offset: 0x1D030, size: 0x8, addend: 0x0, symName: __ZNSt3__16vectorI6VertexNS_9allocatorIS1_EEED1B7v160006Ev, symObjAddr: 0x440, symBinAddr: 0x100004F50, symSize: 0x20 }
  - { offsetInCU: 0x1185C, offset: 0x1D059, size: 0x8, addend: 0x0, symName: __ZN8PolyMeshC1EPcb, symObjAddr: 0x460, symBinAddr: 0x100004F70, symSize: 0x40 }
  - { offsetInCU: 0x119E9, offset: 0x1D1E6, size: 0x8, addend: 0x0, symName: __ZNSt3__113basic_fstreamIcNS_11char_traitsIcEEEC1Ev, symObjAddr: 0x4A0, symBinAddr: 0x100004FB0, symSize: 0x110 }
  - { offsetInCU: 0x11A13, offset: 0x1D210, size: 0x8, addend: 0x0, symName: __ZNSt3__113basic_fstreamIcNS_11char_traitsIcEEE4openEPKcj, symObjAddr: 0x5B0, symBinAddr: 0x1000050C0, symSize: 0x70 }
  - { offsetInCU: 0x11A57, offset: 0x1D254, size: 0x8, addend: 0x0, symName: __ZNKSt3__113basic_fstreamIcNS_11char_traitsIcEEE7is_openEv, symObjAddr: 0x620, symBinAddr: 0x100005130, symSize: 0x30 }
  - { offsetInCU: 0x11A7D, offset: 0x1D27A, size: 0x8, addend: 0x0, symName: __ZNSt3__112basic_stringIcNS_11char_traitsIcEENS_9allocatorIcEEEC1B7v160006Ev, symObjAddr: 0x650, symBinAddr: 0x100005160, symSize: 0x20 }
  - { offsetInCU: 0x11AA6, offset: 0x1D2A3, size: 0x8, addend: 0x0, symName: __ZNKSt3__19basic_iosIcNS_11char_traitsIcEEEcvPvB7v160006Ev, symObjAddr: 0x6C0, symBinAddr: 0x1000051D0, symSize: 0x50 }
  - { offsetInCU: 0x11ACB, offset: 0x1D2C8, size: 0x8, addend: 0x0, symName: __ZN8PolyMesh7processENSt3__16vectorINS0_12basic_stringIcNS0_11char_traitsIcEENS0_9allocatorIcEEEENS5_IS7_EEEE, symObjAddr: 0x710, symBinAddr: 0x100005220, symSize: 0x150 }
  - { offsetInCU: 0x11B00, offset: 0x1D2FD, size: 0x8, addend: 0x0, symName: __ZN8PolyMesh5splitENSt3__112basic_stringIcNS0_11char_traitsIcEENS0_9allocatorIcEEEEc, symObjAddr: 0x860, symBinAddr: 0x100005370, symSize: 0x220 }
  - { offsetInCU: 0x11B70, offset: 0x1D36D, size: 0x8, addend: 0x0, symName: __ZNSt3__16vectorINS_12basic_stringIcNS_11char_traitsIcEENS_9allocatorIcEEEENS4_IS6_EEED1B7v160006Ev, symObjAddr: 0xA80, symBinAddr: 0x100005590, symSize: 0x20 }
  - { offsetInCU: 0x11B99, offset: 0x1D396, size: 0x8, addend: 0x0, symName: __ZNSt3__113basic_fstreamIcNS_11char_traitsIcEEE5closeEv, symObjAddr: 0xAA0, symBinAddr: 0x1000055B0, symSize: 0x50 }
  - { offsetInCU: 0x11BC4, offset: 0x1D3C1, size: 0x8, addend: 0x0, symName: __ZNSt3__113basic_fstreamIcNS_11char_traitsIcEEED1Ev, symObjAddr: 0xAF0, symBinAddr: 0x100005600, symSize: 0x80 }
  - { offsetInCU: 0x11BEE, offset: 0x1D3EB, size: 0x8, addend: 0x0, symName: __ZNSt3__112basic_stringIcNS_11char_traitsIcEENS_9allocatorIcEEE4backB7v160006Ev, symObjAddr: 0xB70, symBinAddr: 0x100005680, symSize: 0x40 }
  - { offsetInCU: 0x11C13, offset: 0x1D410, size: 0x8, addend: 0x0, symName: __ZNKSt3__112basic_stringIcNS_11char_traitsIcEENS_9allocatorIcEEE4sizeB7v160006Ev, symObjAddr: 0xBB0, symBinAddr: 0x1000056C0, symSize: 0x50 }
  - { offsetInCU: 0x11C88, offset: 0x1D485, size: 0x8, addend: 0x0, symName: __ZNSt3__118basic_stringstreamIcNS_11char_traitsIcEENS_9allocatorIcEEEC1B7v160006ERKNS_12basic_stringIcS2_S4_EEj, symObjAddr: 0xC00, symBinAddr: 0x100005710, symSize: 0x120 }
  - { offsetInCU: 0x11CCF, offset: 0x1D4CC, size: 0x8, addend: 0x0, symName: __ZNSt3__16vectorINS_12basic_stringIcNS_11char_traitsIcEENS_9allocatorIcEEEENS4_IS6_EEEC1B7v160006Ev, symObjAddr: 0xD20, symBinAddr: 0x100005830, symSize: 0x20 }
  - { offsetInCU: 0x11CF8, offset: 0x1D4F5, size: 0x8, addend: 0x0, symName: __ZNSt3__16vectorINS_12basic_stringIcNS_11char_traitsIcEENS_9allocatorIcEEEENS4_IS6_EEE9push_backB7v160006ERKS6_, symObjAddr: 0xF60, symBinAddr: 0x100005A70, symSize: 0x60 }
  - { offsetInCU: 0x11D32, offset: 0x1D52F, size: 0x8, addend: 0x0, symName: __ZNSt3__118basic_stringstreamIcNS_11char_traitsIcEENS_9allocatorIcEEED1Ev, symObjAddr: 0xFC0, symBinAddr: 0x100005AD0, symSize: 0x70 }
  - { offsetInCU: 0x11D5D, offset: 0x1D55A, size: 0x8, addend: 0x0, symName: __ZNKSt3__16vectorINS_12basic_stringIcNS_11char_traitsIcEENS_9allocatorIcEEEENS4_IS6_EEE4sizeB7v160006Ev, symObjAddr: 0x1030, symBinAddr: 0x100005B40, symSize: 0x30 }
  - { offsetInCU: 0x11D82, offset: 0x1D57F, size: 0x8, addend: 0x0, symName: __ZNSt3__16vectorINS_12basic_stringIcNS_11char_traitsIcEENS_9allocatorIcEEEENS4_IS6_EEEixB7v160006Em, symObjAddr: 0x1060, symBinAddr: 0x100005B70, symSize: 0x20 }
  - { offsetInCU: 0x11DB7, offset: 0x1D5B4, size: 0x8, addend: 0x0, symName: __ZN8PolyMesh14process_vertexENSt3__16vectorINS0_12basic_stringIcNS0_11char_traitsIcEENS0_9allocatorIcEEEENS5_IS7_EEEE, symObjAddr: 0x1080, symBinAddr: 0x100005B90, symSize: 0x160 }
  - { offsetInCU: 0x11E0E, offset: 0x1D60B, size: 0x8, addend: 0x0, symName: __ZNSt3__16vectorINS_12basic_stringIcNS_11char_traitsIcEENS_9allocatorIcEEEENS4_IS6_EEEC1ERKS8_, symObjAddr: 0x11E0, symBinAddr: 0x100005CF0, symSize: 0x30 }
  - { offsetInCU: 0x11E47, offset: 0x1D644, size: 0x8, addend: 0x0, symName: __ZN8PolyMesh12process_faceENSt3__16vectorINS0_12basic_stringIcNS0_11char_traitsIcEENS0_9allocatorIcEEEENS5_IS7_EEEE, symObjAddr: 0x1210, symBinAddr: 0x100005D20, symSize: 0x280 }
  - { offsetInCU: 0x11EB4, offset: 0x1D6B1, size: 0x8, addend: 0x0, symName: __ZN6VertexC1Efff, symObjAddr: 0x1490, symBinAddr: 0x100005FA0, symSize: 0x40 }
  - { offsetInCU: 0x11F07, offset: 0x1D704, size: 0x8, addend: 0x0, symName: __ZNSt3__16vectorI6VertexNS_9allocatorIS1_EEE9push_backB7v160006ERKS1_, symObjAddr: 0x14D0, symBinAddr: 0x100005FE0, symSize: 0x60 }
  - { offsetInCU: 0x11F3C, offset: 0x1D739, size: 0x8, addend: 0x0, symName: __ZNSt3__16vectorINS0_IiNS_9allocatorIiEEEENS1_IS3_EEE9push_backB7v160006EOS3_, symObjAddr: 0x1530, symBinAddr: 0x100006040, symSize: 0x60 }
  - { offsetInCU: 0x11F71, offset: 0x1D76E, size: 0x8, addend: 0x0, symName: __ZNSt3__16vectorIiNS_9allocatorIiEEEC1B7v160006Ev, symObjAddr: 0x1590, symBinAddr: 0x1000060A0, symSize: 0x20 }
  - { offsetInCU: 0x11F9A, offset: 0x1D797, size: 0x8, addend: 0x0, symName: __ZNSt3__16vectorIiNS_9allocatorIiEEED1B7v160006Ev, symObjAddr: 0x15B0, symBinAddr: 0x1000060C0, symSize: 0x20 }
  - { offsetInCU: 0x11FC3, offset: 0x1D7C0, size: 0x8, addend: 0x0, symName: __ZNSt3__16vectorINS0_IiNS_9allocatorIiEEEENS1_IS3_EEEixB7v160006Em, symObjAddr: 0x15D0, symBinAddr: 0x1000060E0, symSize: 0x20 }
  - { offsetInCU: 0x11FF8, offset: 0x1D7F5, size: 0x8, addend: 0x0, symName: __ZNSt3__16vectorIiNS_9allocatorIiEEE9push_backB7v160006EOi, symObjAddr: 0x15F0, symBinAddr: 0x100006100, symSize: 0x60 }
  - { offsetInCU: 0x1202D, offset: 0x1D82A, size: 0x8, addend: 0x0, symName: __ZN8PolyMesh15apply_transformER9Transform, symObjAddr: 0x1650, symBinAddr: 0x100006160, symSize: 0x10 }
  - { offsetInCU: 0x12061, offset: 0x1D85E, size: 0x8, addend: 0x0, symName: __ZN8PolyMesh12intersectionE3Ray, symObjAddr: 0x1660, symBinAddr: 0x100006170, symSize: 0x20 }
  - { offsetInCU: 0x120A3, offset: 0x1D8A0, size: 0x8, addend: 0x0, symName: __ZN6Object12set_materialEP8Material, symObjAddr: 0x1680, symBinAddr: 0x100006190, symSize: 0x20 }
  - { offsetInCU: 0x120D6, offset: 0x1D8D3, size: 0x8, addend: 0x0, symName: __ZN6Object12intersectionE3Ray, symObjAddr: 0x16A0, symBinAddr: 0x1000061B0, symSize: 0x10 }
  - { offsetInCU: 0x12109, offset: 0x1D906, size: 0x8, addend: 0x0, symName: __ZN6Object15apply_transformER9Transform, symObjAddr: 0x16B0, symBinAddr: 0x1000061C0, symSize: 0x10 }
  - { offsetInCU: 0x1213C, offset: 0x1D939, size: 0x8, addend: 0x0, symName: __ZNSt3__113basic_fstreamIcNS_11char_traitsIcEEED2Ev, symObjAddr: 0x16C0, symBinAddr: 0x1000061D0, symSize: 0xA0 }
  - { offsetInCU: 0x12172, offset: 0x1D96F, size: 0x8, addend: 0x0, symName: __ZThn16_NSt3__113basic_fstreamIcNS_11char_traitsIcEEED1Ev, symObjAddr: 0x1760, symBinAddr: 0x100006270, symSize: 0x20 }
  - { offsetInCU: 0x12188, offset: 0x1D985, size: 0x8, addend: 0x0, symName: __ZTv0_n24_NSt3__113basic_fstreamIcNS_11char_traitsIcEEED1Ev, symObjAddr: 0x1780, symBinAddr: 0x100006290, symSize: 0x20 }
  - { offsetInCU: 0x1219E, offset: 0x1D99B, size: 0x8, addend: 0x0, symName: __ZNSt3__113basic_fstreamIcNS_11char_traitsIcEEED0Ev, symObjAddr: 0x17A0, symBinAddr: 0x1000062B0, symSize: 0x50 }
  - { offsetInCU: 0x121C8, offset: 0x1D9C5, size: 0x8, addend: 0x0, symName: __ZThn16_NSt3__113basic_fstreamIcNS_11char_traitsIcEEED0Ev, symObjAddr: 0x17F0, symBinAddr: 0x100006300, symSize: 0x20 }
  - { offsetInCU: 0x121DE, offset: 0x1D9DB, size: 0x8, addend: 0x0, symName: __ZTv0_n24_NSt3__113basic_fstreamIcNS_11char_traitsIcEEED0Ev, symObjAddr: 0x1810, symBinAddr: 0x100006320, symSize: 0x20 }
  - { offsetInCU: 0x121F4, offset: 0x1D9F1, size: 0x8, addend: 0x0, symName: __ZNSt3__118basic_stringstreamIcNS_11char_traitsIcEENS_9allocatorIcEEED2Ev, symObjAddr: 0x1830, symBinAddr: 0x100006340, symSize: 0xA0 }
  - { offsetInCU: 0x1222B, offset: 0x1DA28, size: 0x8, addend: 0x0, symName: __ZThn16_NSt3__118basic_stringstreamIcNS_11char_traitsIcEENS_9allocatorIcEEED1Ev, symObjAddr: 0x18D0, symBinAddr: 0x1000063E0, symSize: 0x20 }
  - { offsetInCU: 0x12242, offset: 0x1DA3F, size: 0x8, addend: 0x0, symName: __ZTv0_n24_NSt3__118basic_stringstreamIcNS_11char_traitsIcEENS_9allocatorIcEEED1Ev, symObjAddr: 0x18F0, symBinAddr: 0x100006400, symSize: 0x20 }
  - { offsetInCU: 0x1225E, offset: 0x1DA5B, size: 0x8, addend: 0x0, symName: __ZNSt3__115basic_stringbufIcNS_11char_traitsIcEENS_9allocatorIcEEED1Ev, symObjAddr: 0x1910, symBinAddr: 0x100006420, symSize: 0x20 }
  - { offsetInCU: 0x12289, offset: 0x1DA86, size: 0x8, addend: 0x0, symName: __ZNSt3__115basic_stringbufIcNS_11char_traitsIcEENS_9allocatorIcEEED2Ev, symObjAddr: 0x1930, symBinAddr: 0x100006440, symSize: 0x70 }
  - { offsetInCU: 0x122B4, offset: 0x1DAB1, size: 0x8, addend: 0x0, symName: __ZN6VertexC2Efff, symObjAddr: 0x19A0, symBinAddr: 0x1000064B0, symSize: 0x60 }
  - { offsetInCU: 0x12307, offset: 0x1DB04, size: 0x8, addend: 0x0, symName: __ZN6VectorC2Ev, symObjAddr: 0x1A00, symBinAddr: 0x100006510, symSize: 0x30 }
  - { offsetInCU: 0x12330, offset: 0x1DB2D, size: 0x8, addend: 0x0, symName: __ZNSt3__16vectorI6VertexNS_9allocatorIS1_EEED2B7v160006Ev, symObjAddr: 0x1A30, symBinAddr: 0x100006540, symSize: 0x30 }
  - { offsetInCU: 0x12359, offset: 0x1DB56, size: 0x8, addend: 0x0, symName: __ZNSt3__16vectorI6VertexNS_9allocatorIS1_EEE16__destroy_vectorC1ERS4_, symObjAddr: 0x1A60, symBinAddr: 0x100006570, symSize: 0x30 }
  - { offsetInCU: 0x12391, offset: 0x1DB8E, size: 0x8, addend: 0x0, symName: __ZNSt3__16vectorI6VertexNS_9allocatorIS1_EEE16__destroy_vectorclB7v160006Ev, symObjAddr: 0x1A90, symBinAddr: 0x1000065A0, symSize: 0x90 }
  - { offsetInCU: 0x123B6, offset: 0x1DBB3, size: 0x8, addend: 0x0, symName: __ZNSt3__16vectorI6VertexNS_9allocatorIS1_EEE16__destroy_vectorC2ERS4_, symObjAddr: 0x1B20, symBinAddr: 0x100006630, symSize: 0x20 }
  - { offsetInCU: 0x123EE, offset: 0x1DBEB, size: 0x8, addend: 0x0, symName: __ZNKSt3__16vectorI6VertexNS_9allocatorIS1_EEE17__annotate_deleteB7v160006Ev, symObjAddr: 0x1B40, symBinAddr: 0x100006650, symSize: 0xB0 }
  - { offsetInCU: 0x12413, offset: 0x1DC10, size: 0x8, addend: 0x0, symName: __ZNSt3__16vectorI6VertexNS_9allocatorIS1_EEE7__clearB7v160006Ev, symObjAddr: 0x1C00, symBinAddr: 0x100006710, symSize: 0x20 }
  - { offsetInCU: 0x12438, offset: 0x1DC35, size: 0x8, addend: 0x0, symName: __ZNSt3__116allocator_traitsINS_9allocatorI6VertexEEE10deallocateB7v160006ERS3_PS2_m, symObjAddr: 0x1C20, symBinAddr: 0x100006730, symSize: 0x30 }
  - { offsetInCU: 0x1247A, offset: 0x1DC77, size: 0x8, addend: 0x0, symName: __ZNSt3__16vectorI6VertexNS_9allocatorIS1_EEE7__allocB7v160006Ev, symObjAddr: 0x1C50, symBinAddr: 0x100006760, symSize: 0x20 }
  - { offsetInCU: 0x1249F, offset: 0x1DC9C, size: 0x8, addend: 0x0, symName: __ZNKSt3__16vectorI6VertexNS_9allocatorIS1_EEE8capacityB7v160006Ev, symObjAddr: 0x1C70, symBinAddr: 0x100006780, symSize: 0x30 }
  - { offsetInCU: 0x124C4, offset: 0x1DCC1, size: 0x8, addend: 0x0, symName: __ZNKSt3__16vectorI6VertexNS_9allocatorIS1_EEE31__annotate_contiguous_containerB7v160006EPKvS6_S6_S6_, symObjAddr: 0x1CA0, symBinAddr: 0x1000067B0, symSize: 0x20 }
  - { offsetInCU: 0x12519, offset: 0x1DD16, size: 0x8, addend: 0x0, symName: __ZNKSt3__16vectorI6VertexNS_9allocatorIS1_EEE4dataB7v160006Ev, symObjAddr: 0x1CC0, symBinAddr: 0x1000067D0, symSize: 0x20 }
  - { offsetInCU: 0x1253E, offset: 0x1DD3B, size: 0x8, addend: 0x0, symName: __ZNKSt3__16vectorI6VertexNS_9allocatorIS1_EEE4sizeB7v160006Ev, symObjAddr: 0x1CE0, symBinAddr: 0x1000067F0, symSize: 0x20 }
  - { offsetInCU: 0x12563, offset: 0x1DD60, size: 0x8, addend: 0x0, symName: __ZNSt3__16vectorI6VertexNS_9allocatorIS1_EEE22__base_destruct_at_endB7v160006EPS1_, symObjAddr: 0x1D10, symBinAddr: 0x100006820, symSize: 0x90 }
  - { offsetInCU: 0x125A6, offset: 0x1DDA3, size: 0x8, addend: 0x0, symName: __ZNSt3__116allocator_traitsINS_9allocatorI6VertexEEE7destroyB7v160006IS2_vEEvRS3_PT_, symObjAddr: 0x1DA0, symBinAddr: 0x1000068B0, symSize: 0x30 }
  - { offsetInCU: 0x125E4, offset: 0x1DDE1, size: 0x8, addend: 0x0, symName: __ZNSt3__19allocatorI6VertexE7destroyB7v160006EPS1_, symObjAddr: 0x1DD0, symBinAddr: 0x1000068E0, symSize: 0x10 }
  - { offsetInCU: 0x12617, offset: 0x1DE14, size: 0x8, addend: 0x0, symName: __ZNSt3__19allocatorI6VertexE10deallocateB7v160006EPS1_m, symObjAddr: 0x1DE0, symBinAddr: 0x1000068F0, symSize: 0x70 }
  - { offsetInCU: 0x12658, offset: 0x1DE55, size: 0x8, addend: 0x0, symName: __ZNSt3__117__compressed_pairIP6VertexNS_9allocatorIS1_EEE6secondB7v160006Ev, symObjAddr: 0x1ED0, symBinAddr: 0x1000069D0, symSize: 0x20 }
  - { offsetInCU: 0x1267D, offset: 0x1DE7A, size: 0x8, addend: 0x0, symName: __ZNSt3__122__compressed_pair_elemINS_9allocatorI6VertexEELi1ELb1EE5__getB7v160006Ev, symObjAddr: 0x1EF0, symBinAddr: 0x1000069F0, symSize: 0x10 }
  - { offsetInCU: 0x126A2, offset: 0x1DE9F, size: 0x8, addend: 0x0, symName: __ZNKSt3__16vectorI6VertexNS_9allocatorIS1_EEE9__end_capB7v160006Ev, symObjAddr: 0x1F00, symBinAddr: 0x100006A00, symSize: 0x20 }
  - { offsetInCU: 0x126C7, offset: 0x1DEC4, size: 0x8, addend: 0x0, symName: __ZNKSt3__117__compressed_pairIP6VertexNS_9allocatorIS1_EEE5firstB7v160006Ev, symObjAddr: 0x1F20, symBinAddr: 0x100006A20, symSize: 0x20 }
  - { offsetInCU: 0x126EC, offset: 0x1DEE9, size: 0x8, addend: 0x0, symName: __ZNKSt3__122__compressed_pair_elemIP6VertexLi0ELb0EE5__getB7v160006Ev, symObjAddr: 0x1F40, symBinAddr: 0x100006A40, symSize: 0x10 }
  - { offsetInCU: 0x12711, offset: 0x1DF0E, size: 0x8, addend: 0x0, symName: __ZNSt3__16vectorINS0_IiNS_9allocatorIiEEEENS1_IS3_EEED2B7v160006Ev, symObjAddr: 0x1F50, symBinAddr: 0x100006A50, symSize: 0x30 }
  - { offsetInCU: 0x1273A, offset: 0x1DF37, size: 0x8, addend: 0x0, symName: __ZNSt3__16vectorINS0_IiNS_9allocatorIiEEEENS1_IS3_EEE16__destroy_vectorC1ERS5_, symObjAddr: 0x1F80, symBinAddr: 0x100006A80, symSize: 0x30 }
  - { offsetInCU: 0x12772, offset: 0x1DF6F, size: 0x8, addend: 0x0, symName: __ZNSt3__16vectorINS0_IiNS_9allocatorIiEEEENS1_IS3_EEE16__destroy_vectorclB7v160006Ev, symObjAddr: 0x1FB0, symBinAddr: 0x100006AB0, symSize: 0x90 }
  - { offsetInCU: 0x12797, offset: 0x1DF94, size: 0x8, addend: 0x0, symName: __ZNSt3__16vectorINS0_IiNS_9allocatorIiEEEENS1_IS3_EEE16__destroy_vectorC2ERS5_, symObjAddr: 0x2040, symBinAddr: 0x100006B40, symSize: 0x20 }
  - { offsetInCU: 0x127CF, offset: 0x1DFCC, size: 0x8, addend: 0x0, symName: __ZNKSt3__16vectorINS0_IiNS_9allocatorIiEEEENS1_IS3_EEE17__annotate_deleteB7v160006Ev, symObjAddr: 0x2060, symBinAddr: 0x100006B60, symSize: 0xB0 }
  - { offsetInCU: 0x127F4, offset: 0x1DFF1, size: 0x8, addend: 0x0, symName: __ZNSt3__16vectorINS0_IiNS_9allocatorIiEEEENS1_IS3_EEE7__clearB7v160006Ev, symObjAddr: 0x2120, symBinAddr: 0x100006C20, symSize: 0x20 }
  - { offsetInCU: 0x12819, offset: 0x1E016, size: 0x8, addend: 0x0, symName: __ZNSt3__116allocator_traitsINS_9allocatorINS_6vectorIiNS1_IiEEEEEEE10deallocateB7v160006ERS5_PS4_m, symObjAddr: 0x2140, symBinAddr: 0x100006C40, symSize: 0x30 }
  - { offsetInCU: 0x1285B, offset: 0x1E058, size: 0x8, addend: 0x0, symName: __ZNSt3__16vectorINS0_IiNS_9allocatorIiEEEENS1_IS3_EEE7__allocB7v160006Ev, symObjAddr: 0x2170, symBinAddr: 0x100006C70, symSize: 0x20 }
  - { offsetInCU: 0x12880, offset: 0x1E07D, size: 0x8, addend: 0x0, symName: __ZNKSt3__16vectorINS0_IiNS_9allocatorIiEEEENS1_IS3_EEE8capacityB7v160006Ev, symObjAddr: 0x2190, symBinAddr: 0x100006C90, symSize: 0x40 }
  - { offsetInCU: 0x128A5, offset: 0x1E0A2, size: 0x8, addend: 0x0, symName: __ZNKSt3__16vectorINS0_IiNS_9allocatorIiEEEENS1_IS3_EEE31__annotate_contiguous_containerB7v160006EPKvS7_S7_S7_, symObjAddr: 0x21D0, symBinAddr: 0x100006CD0, symSize: 0x20 }
  - { offsetInCU: 0x128FA, offset: 0x1E0F7, size: 0x8, addend: 0x0, symName: __ZNKSt3__16vectorINS0_IiNS_9allocatorIiEEEENS1_IS3_EEE4dataB7v160006Ev, symObjAddr: 0x21F0, symBinAddr: 0x100006CF0, symSize: 0x20 }
  - { offsetInCU: 0x1291F, offset: 0x1E11C, size: 0x8, addend: 0x0, symName: __ZNKSt3__16vectorINS0_IiNS_9allocatorIiEEEENS1_IS3_EEE4sizeB7v160006Ev, symObjAddr: 0x2210, symBinAddr: 0x100006D10, symSize: 0x30 }
  - { offsetInCU: 0x12944, offset: 0x1E141, size: 0x8, addend: 0x0, symName: __ZNSt3__16vectorINS0_IiNS_9allocatorIiEEEENS1_IS3_EEE22__base_destruct_at_endB7v160006EPS3_, symObjAddr: 0x2250, symBinAddr: 0x100006D50, symSize: 0x90 }
  - { offsetInCU: 0x12987, offset: 0x1E184, size: 0x8, addend: 0x0, symName: __ZNSt3__116allocator_traitsINS_9allocatorINS_6vectorIiNS1_IiEEEEEEE7destroyB7v160006IS4_vEEvRS5_PT_, symObjAddr: 0x22E0, symBinAddr: 0x100006DE0, symSize: 0x30 }
  - { offsetInCU: 0x129C5, offset: 0x1E1C2, size: 0x8, addend: 0x0, symName: __ZNSt3__19allocatorINS_6vectorIiNS0_IiEEEEE7destroyB7v160006EPS3_, symObjAddr: 0x2310, symBinAddr: 0x100006E10, symSize: 0x20 }
  - { offsetInCU: 0x129F8, offset: 0x1E1F5, size: 0x8, addend: 0x0, symName: __ZNSt3__19allocatorINS_6vectorIiNS0_IiEEEEE10deallocateB7v160006EPS3_m, symObjAddr: 0x2330, symBinAddr: 0x100006E30, symSize: 0x80 }
  - { offsetInCU: 0x12A39, offset: 0x1E236, size: 0x8, addend: 0x0, symName: __ZNSt3__117__compressed_pairIPNS_6vectorIiNS_9allocatorIiEEEENS2_IS4_EEE6secondB7v160006Ev, symObjAddr: 0x23B0, symBinAddr: 0x100006EB0, symSize: 0x20 }
  - { offsetInCU: 0x12A5E, offset: 0x1E25B, size: 0x8, addend: 0x0, symName: __ZNSt3__122__compressed_pair_elemINS_9allocatorINS_6vectorIiNS1_IiEEEEEELi1ELb1EE5__getB7v160006Ev, symObjAddr: 0x23D0, symBinAddr: 0x100006ED0, symSize: 0x10 }
  - { offsetInCU: 0x12A83, offset: 0x1E280, size: 0x8, addend: 0x0, symName: __ZNKSt3__16vectorINS0_IiNS_9allocatorIiEEEENS1_IS3_EEE9__end_capB7v160006Ev, symObjAddr: 0x23E0, symBinAddr: 0x100006EE0, symSize: 0x20 }
  - { offsetInCU: 0x12AA8, offset: 0x1E2A5, size: 0x8, addend: 0x0, symName: __ZNKSt3__117__compressed_pairIPNS_6vectorIiNS_9allocatorIiEEEENS2_IS4_EEE5firstB7v160006Ev, symObjAddr: 0x2400, symBinAddr: 0x100006F00, symSize: 0x20 }
  - { offsetInCU: 0x12ACD, offset: 0x1E2CA, size: 0x8, addend: 0x0, symName: __ZNKSt3__122__compressed_pair_elemIPNS_6vectorIiNS_9allocatorIiEEEELi0ELb0EE5__getB7v160006Ev, symObjAddr: 0x2420, symBinAddr: 0x100006F20, symSize: 0x10 }
  - { offsetInCU: 0x12AF2, offset: 0x1E2EF, size: 0x8, addend: 0x0, symName: __ZNSt3__16vectorI6VertexNS_9allocatorIS1_EEEC2B7v160006Ev, symObjAddr: 0x2430, symBinAddr: 0x100006F30, symSize: 0x50 }
  - { offsetInCU: 0x12B25, offset: 0x1E322, size: 0x8, addend: 0x0, symName: __ZNSt3__117__compressed_pairIP6VertexNS_9allocatorIS1_EEEC1B7v160006IDnNS_18__default_init_tagEEEOT_OT0_, symObjAddr: 0x2480, symBinAddr: 0x100006F80, symSize: 0x30 }
  - { offsetInCU: 0x12B7C, offset: 0x1E379, size: 0x8, addend: 0x0, symName: __ZNSt3__117__compressed_pairIP6VertexNS_9allocatorIS1_EEEC2B7v160006IDnNS_18__default_init_tagEEEOT_OT0_, symObjAddr: 0x24C0, symBinAddr: 0x100006FC0, symSize: 0x40 }
  - { offsetInCU: 0x12BD3, offset: 0x1E3D0, size: 0x8, addend: 0x0, symName: __ZNSt3__122__compressed_pair_elemIP6VertexLi0ELb0EEC2B7v160006IDnvEEOT_, symObjAddr: 0x2500, symBinAddr: 0x100007000, symSize: 0x20 }
  - { offsetInCU: 0x12C15, offset: 0x1E412, size: 0x8, addend: 0x0, symName: __ZNSt3__122__compressed_pair_elemINS_9allocatorI6VertexEELi1ELb1EEC2B7v160006ENS_18__default_init_tagE, symObjAddr: 0x2520, symBinAddr: 0x100007020, symSize: 0x20 }
  - { offsetInCU: 0x12C49, offset: 0x1E446, size: 0x8, addend: 0x0, symName: __ZNSt3__19allocatorI6VertexEC2B7v160006Ev, symObjAddr: 0x2540, symBinAddr: 0x100007040, symSize: 0x20 }
  - { offsetInCU: 0x12C72, offset: 0x1E46F, size: 0x8, addend: 0x0, symName: __ZNSt3__116__non_trivial_ifILb1ENS_9allocatorI6VertexEEEC2B7v160006Ev, symObjAddr: 0x2560, symBinAddr: 0x100007060, symSize: 0x10 }
  - { offsetInCU: 0x12C9B, offset: 0x1E498, size: 0x8, addend: 0x0, symName: __ZNSt3__16vectorINS0_IiNS_9allocatorIiEEEENS1_IS3_EEEC2B7v160006Ev, symObjAddr: 0x2570, symBinAddr: 0x100007070, symSize: 0x50 }
  - { offsetInCU: 0x12CC4, offset: 0x1E4C1, size: 0x8, addend: 0x0, symName: __ZNSt3__117__compressed_pairIPNS_6vectorIiNS_9allocatorIiEEEENS2_IS4_EEEC1B7v160006IDnNS_18__default_init_tagEEEOT_OT0_, symObjAddr: 0x25C0, symBinAddr: 0x1000070C0, symSize: 0x30 }
  - { offsetInCU: 0x12D1B, offset: 0x1E518, size: 0x8, addend: 0x0, symName: __ZNSt3__117__compressed_pairIPNS_6vectorIiNS_9allocatorIiEEEENS2_IS4_EEEC2B7v160006IDnNS_18__default_init_tagEEEOT_OT0_, symObjAddr: 0x2600, symBinAddr: 0x100007100, symSize: 0x40 }
  - { offsetInCU: 0x12D72, offset: 0x1E56F, size: 0x8, addend: 0x0, symName: __ZNSt3__122__compressed_pair_elemIPNS_6vectorIiNS_9allocatorIiEEEELi0ELb0EEC2B7v160006IDnvEEOT_, symObjAddr: 0x2640, symBinAddr: 0x100007140, symSize: 0x20 }
  - { offsetInCU: 0x12DB4, offset: 0x1E5B1, size: 0x8, addend: 0x0, symName: __ZNSt3__122__compressed_pair_elemINS_9allocatorINS_6vectorIiNS1_IiEEEEEELi1ELb1EEC2B7v160006ENS_18__default_init_tagE, symObjAddr: 0x2660, symBinAddr: 0x100007160, symSize: 0x20 }
  - { offsetInCU: 0x12DE8, offset: 0x1E5E5, size: 0x8, addend: 0x0, symName: __ZNSt3__19allocatorINS_6vectorIiNS0_IiEEEEEC2B7v160006Ev, symObjAddr: 0x2680, symBinAddr: 0x100007180, symSize: 0x20 }
  - { offsetInCU: 0x12E11, offset: 0x1E60E, size: 0x8, addend: 0x0, symName: __ZNSt3__116__non_trivial_ifILb1ENS_9allocatorINS_6vectorIiNS1_IiEEEEEEEC2B7v160006Ev, symObjAddr: 0x26A0, symBinAddr: 0x1000071A0, symSize: 0x10 }
  - { offsetInCU: 0x12E3A, offset: 0x1E637, size: 0x8, addend: 0x0, symName: __ZNSt3__114basic_iostreamIcNS_11char_traitsIcEEEC2B7v160006EPNS_15basic_streambufIcS2_EE, symObjAddr: 0x26F0, symBinAddr: 0x1000071B0, symSize: 0xB0 }
  - { offsetInCU: 0x12E7E, offset: 0x1E67B, size: 0x8, addend: 0x0, symName: __ZNSt3__113basic_istreamIcNS_11char_traitsIcEEEC2B7v160006EPNS_15basic_streambufIcS2_EE, symObjAddr: 0x27C0, symBinAddr: 0x100007260, symSize: 0x50 }
  - { offsetInCU: 0x12EC1, offset: 0x1E6BE, size: 0x8, addend: 0x0, symName: __ZNSt3__113basic_ostreamIcNS_11char_traitsIcEEEC2B7v160006Ev, symObjAddr: 0x2810, symBinAddr: 0x1000072B0, symSize: 0x30 }
  - { offsetInCU: 0x12EF6, offset: 0x1E6F3, size: 0x8, addend: 0x0, symName: __ZNSt3__19basic_iosIcNS_11char_traitsIcEEE5clearB7v160006Ej, symObjAddr: 0x28A0, symBinAddr: 0x1000072E0, symSize: 0x30 }
  - { offsetInCU: 0x12F2A, offset: 0x1E727, size: 0x8, addend: 0x0, symName: __ZNSt3__112basic_stringIcNS_11char_traitsIcEENS_9allocatorIcEEEC2B7v160006Ev, symObjAddr: 0x2950, symBinAddr: 0x100007310, symSize: 0x40 }
  - { offsetInCU: 0x12F53, offset: 0x1E750, size: 0x8, addend: 0x0, symName: __ZNSt3__112basic_stringIcNS_11char_traitsIcEENS_9allocatorIcEEE14__default_initB7v160006Ev, symObjAddr: 0x29D0, symBinAddr: 0x100007350, symSize: 0xC0 }
  - { offsetInCU: 0x12FA4, offset: 0x1E7A1, size: 0x8, addend: 0x0, symName: __ZNSt3__117__compressed_pairINS_12basic_stringIcNS_11char_traitsIcEENS_9allocatorIcEEE5__repES5_E5firstB7v160006Ev, symObjAddr: 0x2B20, symBinAddr: 0x100007410, symSize: 0x20 }
  - { offsetInCU: 0x12FC9, offset: 0x1E7C6, size: 0x8, addend: 0x0, symName: __ZNSt3__112basic_stringIcNS_11char_traitsIcEENS_9allocatorIcEEE11__recommendB7v160006Em, symObjAddr: 0x2B40, symBinAddr: 0x100007430, symSize: 0x90 }
  - { offsetInCU: 0x12FFC, offset: 0x1E7F9, size: 0x8, addend: 0x0, symName: __ZNSt3__116allocator_traitsINS_9allocatorIcEEE8allocateB7v160006ERS2_m, symObjAddr: 0x2BD0, symBinAddr: 0x1000074C0, symSize: 0x30 }
  - { offsetInCU: 0x1302F, offset: 0x1E82C, size: 0x8, addend: 0x0, symName: __ZNSt3__112basic_stringIcNS_11char_traitsIcEENS_9allocatorIcEEE7__allocB7v160006Ev, symObjAddr: 0x2C00, symBinAddr: 0x1000074F0, symSize: 0x20 }
  - { offsetInCU: 0x13054, offset: 0x1E851, size: 0x8, addend: 0x0, symName: __ZNSt3__112basic_stringIcNS_11char_traitsIcEENS_9allocatorIcEEE16__begin_lifetimeB7v160006EPcm, symObjAddr: 0x2C20, symBinAddr: 0x100007510, symSize: 0x10 }
  - { offsetInCU: 0x13087, offset: 0x1E884, size: 0x8, addend: 0x0, symName: __ZNSt3__112basic_stringIcNS_11char_traitsIcEENS_9allocatorIcEEE18__set_long_pointerB7v160006EPc, symObjAddr: 0x2C30, symBinAddr: 0x100007520, symSize: 0x30 }
  - { offsetInCU: 0x130BB, offset: 0x1E8B8, size: 0x8, addend: 0x0, symName: __ZNSt3__112basic_stringIcNS_11char_traitsIcEENS_9allocatorIcEEE14__set_long_capB7v160006Em, symObjAddr: 0x2C60, symBinAddr: 0x100007550, symSize: 0x70 }
  - { offsetInCU: 0x130EF, offset: 0x1E8EC, size: 0x8, addend: 0x0, symName: __ZNSt3__112basic_stringIcNS_11char_traitsIcEENS_9allocatorIcEEE15__set_long_sizeB7v160006Em, symObjAddr: 0x2CD0, symBinAddr: 0x1000075C0, symSize: 0x30 }
  - { offsetInCU: 0x13123, offset: 0x1E920, size: 0x8, addend: 0x0, symName: __ZNSt3__122__compressed_pair_elemINS_12basic_stringIcNS_11char_traitsIcEENS_9allocatorIcEEE5__repELi0ELb0EE5__getB7v160006Ev, symObjAddr: 0x2D00, symBinAddr: 0x1000075F0, symSize: 0x10 }
  - { offsetInCU: 0x13148, offset: 0x1E945, size: 0x8, addend: 0x0, symName: __ZNSt3__112basic_stringIcNS_11char_traitsIcEENS_9allocatorIcEEE10__align_itB7v160006ILm16EEEmm, symObjAddr: 0x2D10, symBinAddr: 0x100007600, symSize: 0x20 }
  - { offsetInCU: 0x13176, offset: 0x1E973, size: 0x8, addend: 0x0, symName: __ZNSt3__19allocatorIcE8allocateB7v160006Em, symObjAddr: 0x2D30, symBinAddr: 0x100007620, symSize: 0x80 }
  - { offsetInCU: 0x131B3, offset: 0x1E9B0, size: 0x8, addend: 0x0, symName: __ZNSt3__116allocator_traitsINS_9allocatorIcEEE8max_sizeB7v160006IS2_vEEmRKS2_, symObjAddr: 0x2DB0, symBinAddr: 0x1000076A0, symSize: 0x20 }
  - { offsetInCU: 0x131E2, offset: 0x1E9DF, size: 0x8, addend: 0x0, symName: __ZNKSt3__19allocatorIcE8max_sizeB7v160006Ev, symObjAddr: 0x2E30, symBinAddr: 0x100007720, symSize: 0x20 }
  - { offsetInCU: 0x13207, offset: 0x1EA04, size: 0x8, addend: 0x0, symName: __ZNSt3__117__compressed_pairINS_12basic_stringIcNS_11char_traitsIcEENS_9allocatorIcEEE5__repES5_E6secondB7v160006Ev, symObjAddr: 0x2E70, symBinAddr: 0x100007760, symSize: 0x20 }
  - { offsetInCU: 0x1322C, offset: 0x1EA29, size: 0x8, addend: 0x0, symName: __ZNSt3__122__compressed_pair_elemINS_9allocatorIcEELi1ELb1EE5__getB7v160006Ev, symObjAddr: 0x2E90, symBinAddr: 0x100007780, symSize: 0x10 }
  - { offsetInCU: 0x13251, offset: 0x1EA4E, size: 0x8, addend: 0x0, symName: __ZNKSt3__19basic_iosIcNS_11char_traitsIcEEE4failB7v160006Ev, symObjAddr: 0x2F90, symBinAddr: 0x100007790, symSize: 0x20 }
  - { offsetInCU: 0x13276, offset: 0x1EA73, size: 0x8, addend: 0x0, symName: __ZNKSt3__18ios_base4failB7v160006Ev, symObjAddr: 0x2FB0, symBinAddr: 0x1000077B0, symSize: 0x20 }
  - { offsetInCU: 0x1329C, offset: 0x1EA99, size: 0x8, addend: 0x0, symName: __ZNSt3__16vectorINS_12basic_stringIcNS_11char_traitsIcEENS_9allocatorIcEEEENS4_IS6_EEED2B7v160006Ev, symObjAddr: 0x2FD0, symBinAddr: 0x1000077D0, symSize: 0x30 }
  - { offsetInCU: 0x132C5, offset: 0x1EAC2, size: 0x8, addend: 0x0, symName: __ZNSt3__16vectorINS_12basic_stringIcNS_11char_traitsIcEENS_9allocatorIcEEEENS4_IS6_EEE16__destroy_vectorC1ERS8_, symObjAddr: 0x3000, symBinAddr: 0x100007800, symSize: 0x30 }
  - { offsetInCU: 0x132FD, offset: 0x1EAFA, size: 0x8, addend: 0x0, symName: __ZNSt3__16vectorINS_12basic_stringIcNS_11char_traitsIcEENS_9allocatorIcEEEENS4_IS6_EEE16__destroy_vectorclB7v160006Ev, symObjAddr: 0x3030, symBinAddr: 0x100007830, symSize: 0x90 }
  - { offsetInCU: 0x13322, offset: 0x1EB1F, size: 0x8, addend: 0x0, symName: __ZNSt3__16vectorINS_12basic_stringIcNS_11char_traitsIcEENS_9allocatorIcEEEENS4_IS6_EEE16__destroy_vectorC2ERS8_, symObjAddr: 0x30C0, symBinAddr: 0x1000078C0, symSize: 0x20 }
  - { offsetInCU: 0x1335A, offset: 0x1EB57, size: 0x8, addend: 0x0, symName: __ZNKSt3__16vectorINS_12basic_stringIcNS_11char_traitsIcEENS_9allocatorIcEEEENS4_IS6_EEE17__annotate_deleteB7v160006Ev, symObjAddr: 0x30E0, symBinAddr: 0x1000078E0, symSize: 0xB0 }
  - { offsetInCU: 0x1337F, offset: 0x1EB7C, size: 0x8, addend: 0x0, symName: __ZNSt3__16vectorINS_12basic_stringIcNS_11char_traitsIcEENS_9allocatorIcEEEENS4_IS6_EEE7__clearB7v160006Ev, symObjAddr: 0x31A0, symBinAddr: 0x1000079A0, symSize: 0x20 }
  - { offsetInCU: 0x133A4, offset: 0x1EBA1, size: 0x8, addend: 0x0, symName: __ZNSt3__116allocator_traitsINS_9allocatorINS_12basic_stringIcNS_11char_traitsIcEENS1_IcEEEEEEE10deallocateB7v160006ERS7_PS6_m, symObjAddr: 0x31C0, symBinAddr: 0x1000079C0, symSize: 0x30 }
  - { offsetInCU: 0x133E6, offset: 0x1EBE3, size: 0x8, addend: 0x0, symName: __ZNSt3__16vectorINS_12basic_stringIcNS_11char_traitsIcEENS_9allocatorIcEEEENS4_IS6_EEE7__allocB7v160006Ev, symObjAddr: 0x31F0, symBinAddr: 0x1000079F0, symSize: 0x20 }
  - { offsetInCU: 0x1340B, offset: 0x1EC08, size: 0x8, addend: 0x0, symName: __ZNKSt3__16vectorINS_12basic_stringIcNS_11char_traitsIcEENS_9allocatorIcEEEENS4_IS6_EEE8capacityB7v160006Ev, symObjAddr: 0x3210, symBinAddr: 0x100007A10, symSize: 0x40 }
  - { offsetInCU: 0x13430, offset: 0x1EC2D, size: 0x8, addend: 0x0, symName: __ZNKSt3__16vectorINS_12basic_stringIcNS_11char_traitsIcEENS_9allocatorIcEEEENS4_IS6_EEE31__annotate_contiguous_containerB7v160006EPKvSA_SA_SA_, symObjAddr: 0x3250, symBinAddr: 0x100007A50, symSize: 0x20 }
  - { offsetInCU: 0x13485, offset: 0x1EC82, size: 0x8, addend: 0x0, symName: __ZNKSt3__16vectorINS_12basic_stringIcNS_11char_traitsIcEENS_9allocatorIcEEEENS4_IS6_EEE4dataB7v160006Ev, symObjAddr: 0x3270, symBinAddr: 0x100007A70, symSize: 0x20 }
  - { offsetInCU: 0x134AA, offset: 0x1ECA7, size: 0x8, addend: 0x0, symName: __ZNSt3__16vectorINS_12basic_stringIcNS_11char_traitsIcEENS_9allocatorIcEEEENS4_IS6_EEE22__base_destruct_at_endB7v160006EPS6_, symObjAddr: 0x32A0, symBinAddr: 0x100007AA0, symSize: 0x90 }
  - { offsetInCU: 0x134ED, offset: 0x1ECEA, size: 0x8, addend: 0x0, symName: __ZNSt3__116allocator_traitsINS_9allocatorINS_12basic_stringIcNS_11char_traitsIcEENS1_IcEEEEEEE7destroyB7v160006IS6_vEEvRS7_PT_, symObjAddr: 0x3330, symBinAddr: 0x100007B30, symSize: 0x30 }
  - { offsetInCU: 0x1352B, offset: 0x1ED28, size: 0x8, addend: 0x0, symName: __ZNSt3__19allocatorINS_12basic_stringIcNS_11char_traitsIcEENS0_IcEEEEE7destroyB7v160006EPS5_, symObjAddr: 0x3360, symBinAddr: 0x100007B60, symSize: 0x20 }
  - { offsetInCU: 0x1355E, offset: 0x1ED5B, size: 0x8, addend: 0x0, symName: __ZNSt3__19allocatorINS_12basic_stringIcNS_11char_traitsIcEENS0_IcEEEEE10deallocateB7v160006EPS5_m, symObjAddr: 0x3380, symBinAddr: 0x100007B80, symSize: 0x80 }
  - { offsetInCU: 0x1359F, offset: 0x1ED9C, size: 0x8, addend: 0x0, symName: __ZNSt3__117__compressed_pairIPNS_12basic_stringIcNS_11char_traitsIcEENS_9allocatorIcEEEENS4_IS6_EEE6secondB7v160006Ev, symObjAddr: 0x3400, symBinAddr: 0x100007C00, symSize: 0x20 }
  - { offsetInCU: 0x135C4, offset: 0x1EDC1, size: 0x8, addend: 0x0, symName: __ZNSt3__122__compressed_pair_elemINS_9allocatorINS_12basic_stringIcNS_11char_traitsIcEENS1_IcEEEEEELi1ELb1EE5__getB7v160006Ev, symObjAddr: 0x3420, symBinAddr: 0x100007C20, symSize: 0x10 }
  - { offsetInCU: 0x135E9, offset: 0x1EDE6, size: 0x8, addend: 0x0, symName: __ZNKSt3__16vectorINS_12basic_stringIcNS_11char_traitsIcEENS_9allocatorIcEEEENS4_IS6_EEE9__end_capB7v160006Ev, symObjAddr: 0x3430, symBinAddr: 0x100007C30, symSize: 0x20 }
  - { offsetInCU: 0x1360E, offset: 0x1EE0B, size: 0x8, addend: 0x0, symName: __ZNKSt3__117__compressed_pairIPNS_12basic_stringIcNS_11char_traitsIcEENS_9allocatorIcEEEENS4_IS6_EEE5firstB7v160006Ev, symObjAddr: 0x3450, symBinAddr: 0x100007C50, symSize: 0x20 }
  - { offsetInCU: 0x13633, offset: 0x1EE30, size: 0x8, addend: 0x0, symName: __ZNKSt3__122__compressed_pair_elemIPNS_12basic_stringIcNS_11char_traitsIcEENS_9allocatorIcEEEELi0ELb0EE5__getB7v160006Ev, symObjAddr: 0x3470, symBinAddr: 0x100007C70, symSize: 0x10 }
  - { offsetInCU: 0x13658, offset: 0x1EE55, size: 0x8, addend: 0x0, symName: __ZNSt3__112basic_stringIcNS_11char_traitsIcEENS_9allocatorIcEEE13__get_pointerB7v160006Ev, symObjAddr: 0x3480, symBinAddr: 0x100007C80, symSize: 0x50 }
  - { offsetInCU: 0x1367D, offset: 0x1EE7A, size: 0x8, addend: 0x0, symName: __ZNSt3__112basic_stringIcNS_11char_traitsIcEENS_9allocatorIcEEE18__get_long_pointerB7v160006Ev, symObjAddr: 0x3530, symBinAddr: 0x100007CD0, symSize: 0x20 }
  - { offsetInCU: 0x136A2, offset: 0x1EE9F, size: 0x8, addend: 0x0, symName: __ZNSt3__112basic_stringIcNS_11char_traitsIcEENS_9allocatorIcEEE19__get_short_pointerB7v160006Ev, symObjAddr: 0x3550, symBinAddr: 0x100007CF0, symSize: 0x30 }
  - { offsetInCU: 0x136C7, offset: 0x1EEC4, size: 0x8, addend: 0x0, symName: __ZNSt3__114pointer_traitsIPcE10pointer_toB7v160006ERc, symObjAddr: 0x35B0, symBinAddr: 0x100007D20, symSize: 0x10 }
  - { offsetInCU: 0x136EA, offset: 0x1EEE7, size: 0x8, addend: 0x0, symName: __ZNKSt3__112basic_stringIcNS_11char_traitsIcEENS_9allocatorIcEEE15__get_long_sizeB7v160006Ev, symObjAddr: 0x35C0, symBinAddr: 0x100007D30, symSize: 0x20 }
  - { offsetInCU: 0x1370F, offset: 0x1EF0C, size: 0x8, addend: 0x0, symName: __ZNKSt3__112basic_stringIcNS_11char_traitsIcEENS_9allocatorIcEEE16__get_short_sizeB7v160006Ev, symObjAddr: 0x35E0, symBinAddr: 0x100007D50, symSize: 0x30 }
  - { offsetInCU: 0x13734, offset: 0x1EF31, size: 0x8, addend: 0x0, symName: __ZNSt3__115basic_stringbufIcNS_11char_traitsIcEENS_9allocatorIcEEEC1B7v160006ERKNS_12basic_stringIcS2_S4_EEj, symObjAddr: 0x3610, symBinAddr: 0x100007D80, symSize: 0x30 }
  - { offsetInCU: 0x13779, offset: 0x1EF76, size: 0x8, addend: 0x0, symName: __ZNSt3__115basic_stringbufIcNS_11char_traitsIcEENS_9allocatorIcEEEC2B7v160006ERKNS_12basic_stringIcS2_S4_EEj, symObjAddr: 0x3640, symBinAddr: 0x100007DB0, symSize: 0xD0 }
  - { offsetInCU: 0x137BE, offset: 0x1EFBB, size: 0x8, addend: 0x0, symName: __ZNKSt3__112basic_stringIcNS_11char_traitsIcEENS_9allocatorIcEEE13get_allocatorB7v160006Ev, symObjAddr: 0x3710, symBinAddr: 0x100007E80, symSize: 0x20 }
  - { offsetInCU: 0x137E3, offset: 0x1EFE0, size: 0x8, addend: 0x0, symName: __ZNSt3__112basic_stringIcNS_11char_traitsIcEENS_9allocatorIcEEEC1B7v160006ERKS4_, symObjAddr: 0x3730, symBinAddr: 0x100007EA0, symSize: 0x30 }
  - { offsetInCU: 0x1381B, offset: 0x1F018, size: 0x8, addend: 0x0, symName: __ZNKSt3__112basic_stringIcNS_11char_traitsIcEENS_9allocatorIcEEE7__allocB7v160006Ev, symObjAddr: 0x3760, symBinAddr: 0x100007ED0, symSize: 0x20 }
  - { offsetInCU: 0x13840, offset: 0x1F03D, size: 0x8, addend: 0x0, symName: __ZNKSt3__117__compressed_pairINS_12basic_stringIcNS_11char_traitsIcEENS_9allocatorIcEEE5__repES5_E6secondB7v160006Ev, symObjAddr: 0x3780, symBinAddr: 0x100007EF0, symSize: 0x20 }
  - { offsetInCU: 0x13865, offset: 0x1F062, size: 0x8, addend: 0x0, symName: __ZNKSt3__122__compressed_pair_elemINS_9allocatorIcEELi1ELb1EE5__getB7v160006Ev, symObjAddr: 0x37A0, symBinAddr: 0x100007F10, symSize: 0x10 }
  - { offsetInCU: 0x1388A, offset: 0x1F087, size: 0x8, addend: 0x0, symName: __ZNSt3__112basic_stringIcNS_11char_traitsIcEENS_9allocatorIcEEEC2B7v160006ERKS4_, symObjAddr: 0x37B0, symBinAddr: 0x100007F20, symSize: 0x40 }
  - { offsetInCU: 0x138C2, offset: 0x1F0BF, size: 0x8, addend: 0x0, symName: __ZNSt3__117__compressed_pairINS_12basic_stringIcNS_11char_traitsIcEENS_9allocatorIcEEE5__repES5_EC1B7v160006INS_18__default_init_tagERKS5_EEOT_OT0_, symObjAddr: 0x37F0, symBinAddr: 0x100007F60, symSize: 0x30 }
  - { offsetInCU: 0x13919, offset: 0x1F116, size: 0x8, addend: 0x0, symName: __ZNSt3__117__compressed_pairINS_12basic_stringIcNS_11char_traitsIcEENS_9allocatorIcEEE5__repES5_EC2B7v160006INS_18__default_init_tagERKS5_EEOT_OT0_, symObjAddr: 0x3820, symBinAddr: 0x100007F90, symSize: 0x40 }
  - { offsetInCU: 0x13970, offset: 0x1F16D, size: 0x8, addend: 0x0, symName: __ZNSt3__122__compressed_pair_elemINS_9allocatorIcEELi1ELb1EEC2B7v160006IRKS2_vEEOT_, symObjAddr: 0x3860, symBinAddr: 0x100007FD0, symSize: 0x10 }
  - { offsetInCU: 0x139B2, offset: 0x1F1AF, size: 0x8, addend: 0x0, symName: __ZNSt3__16vectorINS_12basic_stringIcNS_11char_traitsIcEENS_9allocatorIcEEEENS4_IS6_EEEC2B7v160006Ev, symObjAddr: 0x3870, symBinAddr: 0x100007FE0, symSize: 0x50 }
  - { offsetInCU: 0x139DB, offset: 0x1F1D8, size: 0x8, addend: 0x0, symName: __ZNSt3__117__compressed_pairIPNS_12basic_stringIcNS_11char_traitsIcEENS_9allocatorIcEEEENS4_IS6_EEEC1B7v160006IDnNS_18__default_init_tagEEEOT_OT0_, symObjAddr: 0x38C0, symBinAddr: 0x100008030, symSize: 0x30 }
  - { offsetInCU: 0x13A32, offset: 0x1F22F, size: 0x8, addend: 0x0, symName: __ZNSt3__117__compressed_pairIPNS_12basic_stringIcNS_11char_traitsIcEENS_9allocatorIcEEEENS4_IS6_EEEC2B7v160006IDnNS_18__default_init_tagEEEOT_OT0_, symObjAddr: 0x3900, symBinAddr: 0x100008070, symSize: 0x40 }
  - { offsetInCU: 0x13A89, offset: 0x1F286, size: 0x8, addend: 0x0, symName: __ZNSt3__122__compressed_pair_elemIPNS_12basic_stringIcNS_11char_traitsIcEENS_9allocatorIcEEEELi0ELb0EEC2B7v160006IDnvEEOT_, symObjAddr: 0x3940, symBinAddr: 0x1000080B0, symSize: 0x20 }
  - { offsetInCU: 0x13ACB, offset: 0x1F2C8, size: 0x8, addend: 0x0, symName: __ZNSt3__122__compressed_pair_elemINS_9allocatorINS_12basic_stringIcNS_11char_traitsIcEENS1_IcEEEEEELi1ELb1EEC2B7v160006ENS_18__default_init_tagE, symObjAddr: 0x3960, symBinAddr: 0x1000080D0, symSize: 0x20 }
  - { offsetInCU: 0x13AFF, offset: 0x1F2FC, size: 0x8, addend: 0x0, symName: __ZNSt3__19allocatorINS_12basic_stringIcNS_11char_traitsIcEENS0_IcEEEEEC2B7v160006Ev, symObjAddr: 0x3980, symBinAddr: 0x1000080F0, symSize: 0x20 }
  - { offsetInCU: 0x13B28, offset: 0x1F325, size: 0x8, addend: 0x0, symName: __ZNSt3__116__non_trivial_ifILb1ENS_9allocatorINS_12basic_stringIcNS_11char_traitsIcEENS1_IcEEEEEEEC2B7v160006Ev, symObjAddr: 0x39A0, symBinAddr: 0x100008110, symSize: 0x10 }
  - { offsetInCU: 0x13B6F, offset: 0x1F36C, size: 0x8, addend: 0x0, symName: __ZNKSt3__113basic_istreamIcNS_11char_traitsIcEEE6sentrycvbB7v160006Ev, symObjAddr: 0x39B0, symBinAddr: 0x100008120, symSize: 0x20 }
  - { offsetInCU: 0x13B94, offset: 0x1F391, size: 0x8, addend: 0x0, symName: __ZNSt3__112basic_stringIcNS_11char_traitsIcEENS_9allocatorIcEEE5clearB7v160006Ev, symObjAddr: 0x39D0, symBinAddr: 0x100008140, symSize: 0xA0 }
  - { offsetInCU: 0x13BBA, offset: 0x1F3B7, size: 0x8, addend: 0x0, symName: __ZNSt3__115basic_streambufIcNS_11char_traitsIcEEE6sbumpcB7v160006Ev, symObjAddr: 0x3A90, symBinAddr: 0x1000081E0, symSize: 0x60 }
  - { offsetInCU: 0x13BDF, offset: 0x1F3DC, size: 0x8, addend: 0x0, symName: __ZNSt3__111char_traitsIcE12to_char_typeEi, symObjAddr: 0x3B10, symBinAddr: 0x100008240, symSize: 0x10 }
  - { offsetInCU: 0x13C02, offset: 0x1F3FF, size: 0x8, addend: 0x0, symName: __ZNSt3__111char_traitsIcE2eqEcc, symObjAddr: 0x3B20, symBinAddr: 0x100008250, symSize: 0x30 }
  - { offsetInCU: 0x13C33, offset: 0x1F430, size: 0x8, addend: 0x0, symName: __ZNKSt3__112basic_stringIcNS_11char_traitsIcEENS_9allocatorIcEEE8max_sizeB7v160006Ev, symObjAddr: 0x3B50, symBinAddr: 0x100008280, symSize: 0xA0 }
  - { offsetInCU: 0x13C84, offset: 0x1F481, size: 0x8, addend: 0x0, symName: __ZNSt3__18ios_base18__setstate_nothrowB7v160006Ej, symObjAddr: 0x3BF0, symBinAddr: 0x100008320, symSize: 0x50 }
  - { offsetInCU: 0x13CB8, offset: 0x1F4B5, size: 0x8, addend: 0x0, symName: __ZNKSt3__19basic_iosIcNS_11char_traitsIcEEE10exceptionsB7v160006Ev, symObjAddr: 0x3C40, symBinAddr: 0x100008370, symSize: 0x20 }
  - { offsetInCU: 0x13CDD, offset: 0x1F4DA, size: 0x8, addend: 0x0, symName: __ZNSt3__111char_traitsIcE6assignERcRKc, symObjAddr: 0x3C70, symBinAddr: 0x1000083A0, symSize: 0x20 }
  - { offsetInCU: 0x13D0E, offset: 0x1F50B, size: 0x8, addend: 0x0, symName: __ZNSt3__112basic_stringIcNS_11char_traitsIcEENS_9allocatorIcEEE16__set_short_sizeB7v160006Em, symObjAddr: 0x3C90, symBinAddr: 0x1000083C0, symSize: 0x50 }
  - { offsetInCU: 0x13D42, offset: 0x1F53F, size: 0x8, addend: 0x0, symName: __ZNSt3__111char_traitsIcE11to_int_typeEc, symObjAddr: 0x3D00, symBinAddr: 0x100008410, symSize: 0x10 }
  - { offsetInCU: 0x13D65, offset: 0x1F562, size: 0x8, addend: 0x0, symName: __ZNSt3__114numeric_limitsImE3maxB7v160006Ev, symObjAddr: 0x3D10, symBinAddr: 0x100008420, symSize: 0x10 }
  - { offsetInCU: 0x13D79, offset: 0x1F576, size: 0x8, addend: 0x0, symName: __ZNSt3__123__libcpp_numeric_limitsImLb1EE3maxB7v160006Ev, symObjAddr: 0x3D20, symBinAddr: 0x100008430, symSize: 0x10 }
  - { offsetInCU: 0x13D8D, offset: 0x1F58A, size: 0x8, addend: 0x0, symName: __ZNKSt3__18ios_base10exceptionsB7v160006Ev, symObjAddr: 0x3D30, symBinAddr: 0x100008440, symSize: 0x20 }
  - { offsetInCU: 0x13DB3, offset: 0x1F5B0, size: 0x8, addend: 0x0, symName: __ZNSt3__16vectorINS_12basic_stringIcNS_11char_traitsIcEENS_9allocatorIcEEEENS4_IS6_EEE9__end_capB7v160006Ev, symObjAddr: 0x3D50, symBinAddr: 0x100008460, symSize: 0x20 }
  - { offsetInCU: 0x13DD8, offset: 0x1F5D5, size: 0x8, addend: 0x0, symName: __ZNSt3__16vectorINS_12basic_stringIcNS_11char_traitsIcEENS_9allocatorIcEEEENS4_IS6_EEE22__construct_one_at_endB7v160006IJRKS6_EEEvDpOT_, symObjAddr: 0x3D70, symBinAddr: 0x100008480, symSize: 0xA0 }
  - { offsetInCU: 0x13E28, offset: 0x1F625, size: 0x8, addend: 0x0, symName: __ZNSt3__16vectorINS_12basic_stringIcNS_11char_traitsIcEENS_9allocatorIcEEEENS4_IS6_EEE21__push_back_slow_pathIRKS6_EEvOT_, symObjAddr: 0x3E10, symBinAddr: 0x100008520, symSize: 0xE0 }
  - { offsetInCU: 0x13E84, offset: 0x1F681, size: 0x8, addend: 0x0, symName: __ZNSt3__117__compressed_pairIPNS_12basic_stringIcNS_11char_traitsIcEENS_9allocatorIcEEEENS4_IS6_EEE5firstB7v160006Ev, symObjAddr: 0x3EF0, symBinAddr: 0x100008600, symSize: 0x20 }
  - { offsetInCU: 0x13EA9, offset: 0x1F6A6, size: 0x8, addend: 0x0, symName: __ZNSt3__122__compressed_pair_elemIPNS_12basic_stringIcNS_11char_traitsIcEENS_9allocatorIcEEEELi0ELb0EE5__getB7v160006Ev, symObjAddr: 0x3F10, symBinAddr: 0x100008620, symSize: 0x10 }
  - { offsetInCU: 0x13EE7, offset: 0x1F6E4, size: 0x8, addend: 0x0, symName: __ZNSt3__16vectorINS_12basic_stringIcNS_11char_traitsIcEENS_9allocatorIcEEEENS4_IS6_EEE21_ConstructTransactionC1B7v160006ERS8_m, symObjAddr: 0x3F20, symBinAddr: 0x100008630, symSize: 0x30 }
  - { offsetInCU: 0x13F2E, offset: 0x1F72B, size: 0x8, addend: 0x0, symName: __ZNSt3__116allocator_traitsINS_9allocatorINS_12basic_stringIcNS_11char_traitsIcEENS1_IcEEEEEEE9constructB7v160006IS6_JRKS6_EvEEvRS7_PT_DpOT0_, symObjAddr: 0x3F50, symBinAddr: 0x100008660, symSize: 0x30 }
  - { offsetInCU: 0x13F88, offset: 0x1F785, size: 0x8, addend: 0x0, symName: __ZNSt3__16vectorINS_12basic_stringIcNS_11char_traitsIcEENS_9allocatorIcEEEENS4_IS6_EEE21_ConstructTransactionD1B7v160006Ev, symObjAddr: 0x3F80, symBinAddr: 0x100008690, symSize: 0x20 }
  - { offsetInCU: 0x13FB1, offset: 0x1F7AE, size: 0x8, addend: 0x0, symName: __ZNSt3__16vectorINS_12basic_stringIcNS_11char_traitsIcEENS_9allocatorIcEEEENS4_IS6_EEE21_ConstructTransactionC2B7v160006ERS8_m, symObjAddr: 0x3FA0, symBinAddr: 0x1000086B0, symSize: 0x40 }
  - { offsetInCU: 0x13FF8, offset: 0x1F7F5, size: 0x8, addend: 0x0, symName: __ZNSt3__19allocatorINS_12basic_stringIcNS_11char_traitsIcEENS0_IcEEEEE9constructB7v160006IS5_JRKS5_EEEvPT_DpOT0_, symObjAddr: 0x3FE0, symBinAddr: 0x1000086F0, symSize: 0x30 }
  - { offsetInCU: 0x1404F, offset: 0x1F84C, size: 0x8, addend: 0x0, symName: __ZNSt3__16vectorINS_12basic_stringIcNS_11char_traitsIcEENS_9allocatorIcEEEENS4_IS6_EEE21_ConstructTransactionD2B7v160006Ev, symObjAddr: 0x4010, symBinAddr: 0x100008720, symSize: 0x20 }
  - { offsetInCU: 0x14078, offset: 0x1F875, size: 0x8, addend: 0x0, symName: __ZNKSt3__16vectorINS_12basic_stringIcNS_11char_traitsIcEENS_9allocatorIcEEEENS4_IS6_EEE11__recommendB7v160006Em, symObjAddr: 0x4030, symBinAddr: 0x100008740, symSize: 0xA0 }
  - { offsetInCU: 0x140CB, offset: 0x1F8C8, size: 0x8, addend: 0x0, symName: __ZNSt3__114__split_bufferINS_12basic_stringIcNS_11char_traitsIcEENS_9allocatorIcEEEERNS4_IS6_EEEC1EmmS8_, symObjAddr: 0x40D0, symBinAddr: 0x1000087E0, symSize: 0x40 }
  - { offsetInCU: 0x1411F, offset: 0x1F91C, size: 0x8, addend: 0x0, symName: __ZNSt3__114__split_bufferINS_12basic_stringIcNS_11char_traitsIcEENS_9allocatorIcEEEERNS4_IS6_EEED1Ev, symObjAddr: 0x4240, symBinAddr: 0x100008950, symSize: 0x20 }
  - { offsetInCU: 0x14149, offset: 0x1F946, size: 0x8, addend: 0x0, symName: __ZNKSt3__16vectorINS_12basic_stringIcNS_11char_traitsIcEENS_9allocatorIcEEEENS4_IS6_EEE8max_sizeEv, symObjAddr: 0x4260, symBinAddr: 0x100008970, symSize: 0x70 }
  - { offsetInCU: 0x1416F, offset: 0x1F96C, size: 0x8, addend: 0x0, symName: __ZNKSt3__16vectorINS_12basic_stringIcNS_11char_traitsIcEENS_9allocatorIcEEEENS4_IS6_EEE20__throw_length_errorB7v160006Ev, symObjAddr: 0x42D0, symBinAddr: 0x1000089E0, symSize: 0x20 }
  - { offsetInCU: 0x1419E, offset: 0x1F99B, size: 0x8, addend: 0x0, symName: __ZNSt3__116allocator_traitsINS_9allocatorINS_12basic_stringIcNS_11char_traitsIcEENS1_IcEEEEEEE8max_sizeB7v160006IS7_vEEmRKS7_, symObjAddr: 0x4350, symBinAddr: 0x100008A60, symSize: 0x20 }
  - { offsetInCU: 0x141CD, offset: 0x1F9CA, size: 0x8, addend: 0x0, symName: __ZNKSt3__16vectorINS_12basic_stringIcNS_11char_traitsIcEENS_9allocatorIcEEEENS4_IS6_EEE7__allocB7v160006Ev, symObjAddr: 0x4370, symBinAddr: 0x100008A80, symSize: 0x20 }
  - { offsetInCU: 0x141F2, offset: 0x1F9EF, size: 0x8, addend: 0x0, symName: __ZNSt3__114numeric_limitsIlE3maxB7v160006Ev, symObjAddr: 0x4390, symBinAddr: 0x100008AA0, symSize: 0x10 }
  - { offsetInCU: 0x1421A, offset: 0x1FA17, size: 0x8, addend: 0x0, symName: __ZNKSt3__16__lessImmEclB7v160006ERKmS3_, symObjAddr: 0x43F0, symBinAddr: 0x100008B00, symSize: 0x30 }
  - { offsetInCU: 0x1425B, offset: 0x1FA58, size: 0x8, addend: 0x0, symName: __ZNKSt3__19allocatorINS_12basic_stringIcNS_11char_traitsIcEENS0_IcEEEEE8max_sizeB7v160006Ev, symObjAddr: 0x4420, symBinAddr: 0x100008B30, symSize: 0x20 }
  - { offsetInCU: 0x14280, offset: 0x1FA7D, size: 0x8, addend: 0x0, symName: __ZNKSt3__117__compressed_pairIPNS_12basic_stringIcNS_11char_traitsIcEENS_9allocatorIcEEEENS4_IS6_EEE6secondB7v160006Ev, symObjAddr: 0x4440, symBinAddr: 0x100008B50, symSize: 0x20 }
  - { offsetInCU: 0x142A5, offset: 0x1FAA2, size: 0x8, addend: 0x0, symName: __ZNKSt3__122__compressed_pair_elemINS_9allocatorINS_12basic_stringIcNS_11char_traitsIcEENS1_IcEEEEEELi1ELb1EE5__getB7v160006Ev, symObjAddr: 0x4460, symBinAddr: 0x100008B70, symSize: 0x10 }
  - { offsetInCU: 0x142CA, offset: 0x1FAC7, size: 0x8, addend: 0x0, symName: __ZNSt3__123__libcpp_numeric_limitsIlLb1EE3maxB7v160006Ev, symObjAddr: 0x4470, symBinAddr: 0x100008B80, symSize: 0x10 }
  - { offsetInCU: 0x142DE, offset: 0x1FADB, size: 0x8, addend: 0x0, symName: __ZNSt12length_errorC1B7v160006EPKc, symObjAddr: 0x44F0, symBinAddr: 0x100008C00, symSize: 0x30 }
  - { offsetInCU: 0x14315, offset: 0x1FB12, size: 0x8, addend: 0x0, symName: __ZNSt12length_errorC2B7v160006EPKc, symObjAddr: 0x4520, symBinAddr: 0x100008C30, symSize: 0x40 }
  - { offsetInCU: 0x1434C, offset: 0x1FB49, size: 0x8, addend: 0x0, symName: __ZNSt3__114__split_bufferINS_12basic_stringIcNS_11char_traitsIcEENS_9allocatorIcEEEERNS4_IS6_EEEC2EmmS8_, symObjAddr: 0x45B0, symBinAddr: 0x100008CC0, symSize: 0xC0 }
  - { offsetInCU: 0x143BD, offset: 0x1FBBA, size: 0x8, addend: 0x0, symName: __ZNSt3__117__compressed_pairIPNS_12basic_stringIcNS_11char_traitsIcEENS_9allocatorIcEEEERNS4_IS6_EEEC1B7v160006IDnS9_EEOT_OT0_, symObjAddr: 0x4670, symBinAddr: 0x100008D80, symSize: 0x30 }
  - { offsetInCU: 0x14414, offset: 0x1FC11, size: 0x8, addend: 0x0, symName: __ZNSt3__114__split_bufferINS_12basic_stringIcNS_11char_traitsIcEENS_9allocatorIcEEEERNS4_IS6_EEE7__allocB7v160006Ev, symObjAddr: 0x46E0, symBinAddr: 0x100008DF0, symSize: 0x20 }
  - { offsetInCU: 0x14439, offset: 0x1FC36, size: 0x8, addend: 0x0, symName: __ZNSt3__114__split_bufferINS_12basic_stringIcNS_11char_traitsIcEENS_9allocatorIcEEEERNS4_IS6_EEE9__end_capB7v160006Ev, symObjAddr: 0x4700, symBinAddr: 0x100008E10, symSize: 0x20 }
  - { offsetInCU: 0x1445E, offset: 0x1FC5B, size: 0x8, addend: 0x0, symName: __ZNSt3__117__compressed_pairIPNS_12basic_stringIcNS_11char_traitsIcEENS_9allocatorIcEEEERNS4_IS6_EEEC2B7v160006IDnS9_EEOT_OT0_, symObjAddr: 0x4720, symBinAddr: 0x100008E30, symSize: 0x40 }
  - { offsetInCU: 0x144B5, offset: 0x1FCB2, size: 0x8, addend: 0x0, symName: __ZNSt3__122__compressed_pair_elemIRNS_9allocatorINS_12basic_stringIcNS_11char_traitsIcEENS1_IcEEEEEELi1ELb0EEC2B7v160006IS8_vEEOT_, symObjAddr: 0x4760, symBinAddr: 0x100008E70, symSize: 0x20 }
  - { offsetInCU: 0x144F7, offset: 0x1FCF4, size: 0x8, addend: 0x0, symName: __ZNSt3__19allocatorINS_12basic_stringIcNS_11char_traitsIcEENS0_IcEEEEE8allocateB7v160006Em, symObjAddr: 0x4780, symBinAddr: 0x100008E90, symSize: 0x80 }
  - { offsetInCU: 0x1452A, offset: 0x1FD27, size: 0x8, addend: 0x0, symName: __ZNSt3__117__compressed_pairIPNS_12basic_stringIcNS_11char_traitsIcEENS_9allocatorIcEEEERNS4_IS6_EEE6secondB7v160006Ev, symObjAddr: 0x4800, symBinAddr: 0x100008F10, symSize: 0x20 }
  - { offsetInCU: 0x1454F, offset: 0x1FD4C, size: 0x8, addend: 0x0, symName: __ZNSt3__122__compressed_pair_elemIRNS_9allocatorINS_12basic_stringIcNS_11char_traitsIcEENS1_IcEEEEEELi1ELb0EE5__getB7v160006Ev, symObjAddr: 0x4820, symBinAddr: 0x100008F30, symSize: 0x20 }
  - { offsetInCU: 0x14574, offset: 0x1FD71, size: 0x8, addend: 0x0, symName: __ZNSt3__117__compressed_pairIPNS_12basic_stringIcNS_11char_traitsIcEENS_9allocatorIcEEEERNS4_IS6_EEE5firstB7v160006Ev, symObjAddr: 0x4840, symBinAddr: 0x100008F50, symSize: 0x20 }
  - { offsetInCU: 0x14599, offset: 0x1FD96, size: 0x8, addend: 0x0, symName: __ZNSt3__116reverse_iteratorIPNS_12basic_stringIcNS_11char_traitsIcEENS_9allocatorIcEEEEEC1B7v160006ES7_, symObjAddr: 0x49F0, symBinAddr: 0x100009100, symSize: 0x30 }
  - { offsetInCU: 0x145D0, offset: 0x1FDCD, size: 0x8, addend: 0x0, symName: __ZNKSt3__116reverse_iteratorIPNS_12basic_stringIcNS_11char_traitsIcEENS_9allocatorIcEEEEE4baseB7v160006Ev, symObjAddr: 0x4A20, symBinAddr: 0x100009130, symSize: 0x20 }
  - { offsetInCU: 0x145F5, offset: 0x1FDF2, size: 0x8, addend: 0x0, symName: __ZNKSt3__16vectorINS_12basic_stringIcNS_11char_traitsIcEENS_9allocatorIcEEEENS4_IS6_EEE14__annotate_newB7v160006Em, symObjAddr: 0x4A80, symBinAddr: 0x100009190, symSize: 0xA0 }
  - { offsetInCU: 0x14629, offset: 0x1FE26, size: 0x8, addend: 0x0, symName: __ZNSt3__129_AllocatorDestroyRangeReverseINS_9allocatorINS_12basic_stringIcNS_11char_traitsIcEENS1_IcEEEEEENS_16reverse_iteratorIPS6_EEEC1B7v160006ERS7_RSA_SD_, symObjAddr: 0x4B90, symBinAddr: 0x1000092A0, symSize: 0x40 }
  - { offsetInCU: 0x1467F, offset: 0x1FE7C, size: 0x8, addend: 0x0, symName: __ZNKSt3__116reverse_iteratorIPNS_12basic_stringIcNS_11char_traitsIcEENS_9allocatorIcEEEEEdeB7v160006Ev, symObjAddr: 0x4C30, symBinAddr: 0x100009340, symSize: 0x30 }
  - { offsetInCU: 0x146B2, offset: 0x1FEAF, size: 0x8, addend: 0x0, symName: __ZNSt3__116reverse_iteratorIPNS_12basic_stringIcNS_11char_traitsIcEENS_9allocatorIcEEEEEppB7v160006Ev, symObjAddr: 0x4C60, symBinAddr: 0x100009370, symSize: 0x20 }
  - { offsetInCU: 0x146D7, offset: 0x1FED4, size: 0x8, addend: 0x0, symName: __ZNSt3__128__exception_guard_exceptionsINS_29_AllocatorDestroyRangeReverseINS_9allocatorINS_12basic_stringIcNS_11char_traitsIcEENS2_IcEEEEEENS_16reverse_iteratorIPS7_EEEEE10__completeB7v160006Ev, symObjAddr: 0x4C80, symBinAddr: 0x100009390, symSize: 0x20 }
  - { offsetInCU: 0x146FC, offset: 0x1FEF9, size: 0x8, addend: 0x0, symName: __ZNSt3__128__exception_guard_exceptionsINS_29_AllocatorDestroyRangeReverseINS_9allocatorINS_12basic_stringIcNS_11char_traitsIcEENS2_IcEEEEEENS_16reverse_iteratorIPS7_EEEEED1B7v160006Ev, symObjAddr: 0x4CA0, symBinAddr: 0x1000093B0, symSize: 0x20 }
  - { offsetInCU: 0x14725, offset: 0x1FF22, size: 0x8, addend: 0x0, symName: __ZNSt3__128__exception_guard_exceptionsINS_29_AllocatorDestroyRangeReverseINS_9allocatorINS_12basic_stringIcNS_11char_traitsIcEENS2_IcEEEEEENS_16reverse_iteratorIPS7_EEEEEC1B7v160006ESC_, symObjAddr: 0x4CC0, symBinAddr: 0x1000093D0, symSize: 0x40 }
  - { offsetInCU: 0x1475C, offset: 0x1FF59, size: 0x8, addend: 0x0, symName: __ZNSt3__128__exception_guard_exceptionsINS_29_AllocatorDestroyRangeReverseINS_9allocatorINS_12basic_stringIcNS_11char_traitsIcEENS2_IcEEEEEENS_16reverse_iteratorIPS7_EEEEEC2B7v160006ESC_, symObjAddr: 0x4D00, symBinAddr: 0x100009410, symSize: 0x30 }
  - { offsetInCU: 0x14793, offset: 0x1FF90, size: 0x8, addend: 0x0, symName: __ZNSt3__129_AllocatorDestroyRangeReverseINS_9allocatorINS_12basic_stringIcNS_11char_traitsIcEENS1_IcEEEEEENS_16reverse_iteratorIPS6_EEEC2B7v160006ERS7_RSA_SD_, symObjAddr: 0x4D30, symBinAddr: 0x100009440, symSize: 0x40 }
  - { offsetInCU: 0x147EE, offset: 0x1FFEB, size: 0x8, addend: 0x0, symName: __ZNSt3__119__to_address_helperINS_16reverse_iteratorIPNS_12basic_stringIcNS_11char_traitsIcEENS_9allocatorIcEEEEEEvE6__callB7v160006ERKS9_, symObjAddr: 0x4D70, symBinAddr: 0x100009480, symSize: 0x50 }
  - { offsetInCU: 0x14811, offset: 0x2000E, size: 0x8, addend: 0x0, symName: __ZNKSt3__116reverse_iteratorIPNS_12basic_stringIcNS_11char_traitsIcEENS_9allocatorIcEEEEEptB7v160006Ev, symObjAddr: 0x4DC0, symBinAddr: 0x1000094D0, symSize: 0x20 }
  - { offsetInCU: 0x14836, offset: 0x20033, size: 0x8, addend: 0x0, symName: __ZNSt3__128__exception_guard_exceptionsINS_29_AllocatorDestroyRangeReverseINS_9allocatorINS_12basic_stringIcNS_11char_traitsIcEENS2_IcEEEEEENS_16reverse_iteratorIPS7_EEEEED2B7v160006Ev, symObjAddr: 0x4DE0, symBinAddr: 0x1000094F0, symSize: 0x30 }
  - { offsetInCU: 0x1485F, offset: 0x2005C, size: 0x8, addend: 0x0, symName: __ZNKSt3__129_AllocatorDestroyRangeReverseINS_9allocatorINS_12basic_stringIcNS_11char_traitsIcEENS1_IcEEEEEENS_16reverse_iteratorIPS6_EEEclB7v160006Ev, symObjAddr: 0x4E10, symBinAddr: 0x100009520, symSize: 0xF0 }
  - { offsetInCU: 0x14885, offset: 0x20082, size: 0x8, addend: 0x0, symName: __ZNSt3__116reverse_iteratorINS0_IPNS_12basic_stringIcNS_11char_traitsIcEENS_9allocatorIcEEEEEEEC1B7v160006ES8_, symObjAddr: 0x4F70, symBinAddr: 0x100009680, symSize: 0x30 }
  - { offsetInCU: 0x148BC, offset: 0x200B9, size: 0x8, addend: 0x0, symName: __ZNSt3__116reverse_iteratorINS0_IPNS_12basic_stringIcNS_11char_traitsIcEENS_9allocatorIcEEEEEEEppB7v160006Ev, symObjAddr: 0x5010, symBinAddr: 0x100009720, symSize: 0x30 }
  - { offsetInCU: 0x148E1, offset: 0x200DE, size: 0x8, addend: 0x0, symName: __ZNKSt3__116reverse_iteratorINS0_IPNS_12basic_stringIcNS_11char_traitsIcEENS_9allocatorIcEEEEEEE4baseB7v160006Ev, symObjAddr: 0x5040, symBinAddr: 0x100009750, symSize: 0x20 }
  - { offsetInCU: 0x1490B, offset: 0x20108, size: 0x8, addend: 0x0, symName: __ZNSt3__119__to_address_helperINS_16reverse_iteratorINS1_IPNS_12basic_stringIcNS_11char_traitsIcEENS_9allocatorIcEEEEEEEEvE6__callB7v160006ERKSA_, symObjAddr: 0x5060, symBinAddr: 0x100009770, symSize: 0x50 }
  - { offsetInCU: 0x1492E, offset: 0x2012B, size: 0x8, addend: 0x0, symName: __ZNKSt3__116reverse_iteratorINS0_IPNS_12basic_stringIcNS_11char_traitsIcEENS_9allocatorIcEEEEEEEptB7v160006Ev, symObjAddr: 0x50B0, symBinAddr: 0x1000097C0, symSize: 0x20 }
  - { offsetInCU: 0x14953, offset: 0x20150, size: 0x8, addend: 0x0, symName: __ZNKSt3__116reverse_iteratorINS0_IPNS_12basic_stringIcNS_11char_traitsIcEENS_9allocatorIcEEEEEEEdeB7v160006Ev, symObjAddr: 0x50D0, symBinAddr: 0x1000097E0, symSize: 0x40 }
  - { offsetInCU: 0x14986, offset: 0x20183, size: 0x8, addend: 0x0, symName: __ZNSt3__116reverse_iteratorIPNS_12basic_stringIcNS_11char_traitsIcEENS_9allocatorIcEEEEEmmB7v160006Ev, symObjAddr: 0x5110, symBinAddr: 0x100009820, symSize: 0x20 }
  - { offsetInCU: 0x149AB, offset: 0x201A8, size: 0x8, addend: 0x0, symName: __ZNSt3__116reverse_iteratorINS0_IPNS_12basic_stringIcNS_11char_traitsIcEENS_9allocatorIcEEEEEEEC2B7v160006ES8_, symObjAddr: 0x5130, symBinAddr: 0x100009840, symSize: 0x40 }
  - { offsetInCU: 0x149E2, offset: 0x201DF, size: 0x8, addend: 0x0, symName: __ZNSt3__116reverse_iteratorIPNS_12basic_stringIcNS_11char_traitsIcEENS_9allocatorIcEEEEEC2B7v160006ES7_, symObjAddr: 0x5170, symBinAddr: 0x100009880, symSize: 0x30 }
  - { offsetInCU: 0x14A19, offset: 0x20216, size: 0x8, addend: 0x0, symName: __ZNSt3__114__split_bufferINS_12basic_stringIcNS_11char_traitsIcEENS_9allocatorIcEEEERNS4_IS6_EEED2Ev, symObjAddr: 0x51A0, symBinAddr: 0x1000098B0, symSize: 0x60 }
  - { offsetInCU: 0x14A43, offset: 0x20240, size: 0x8, addend: 0x0, symName: __ZNSt3__114__split_bufferINS_12basic_stringIcNS_11char_traitsIcEENS_9allocatorIcEEEERNS4_IS6_EEE5clearB7v160006Ev, symObjAddr: 0x5200, symBinAddr: 0x100009910, symSize: 0x20 }
  - { offsetInCU: 0x14A68, offset: 0x20265, size: 0x8, addend: 0x0, symName: __ZNKSt3__114__split_bufferINS_12basic_stringIcNS_11char_traitsIcEENS_9allocatorIcEEEERNS4_IS6_EEE8capacityB7v160006Ev, symObjAddr: 0x5220, symBinAddr: 0x100009930, symSize: 0x40 }
  - { offsetInCU: 0x14A8D, offset: 0x2028A, size: 0x8, addend: 0x0, symName: __ZNSt3__114__split_bufferINS_12basic_stringIcNS_11char_traitsIcEENS_9allocatorIcEEEERNS4_IS6_EEE17__destruct_at_endB7v160006EPS6_, symObjAddr: 0x5260, symBinAddr: 0x100009970, symSize: 0x30 }
  - { offsetInCU: 0x14AC0, offset: 0x202BD, size: 0x8, addend: 0x0, symName: __ZNSt3__114__split_bufferINS_12basic_stringIcNS_11char_traitsIcEENS_9allocatorIcEEEERNS4_IS6_EEE17__destruct_at_endB7v160006EPS6_NS_17integral_constantIbLb0EEE, symObjAddr: 0x5290, symBinAddr: 0x1000099A0, symSize: 0x80 }
  - { offsetInCU: 0x14AFF, offset: 0x202FC, size: 0x8, addend: 0x0, symName: __ZNKSt3__114__split_bufferINS_12basic_stringIcNS_11char_traitsIcEENS_9allocatorIcEEEERNS4_IS6_EEE9__end_capB7v160006Ev, symObjAddr: 0x5310, symBinAddr: 0x100009A20, symSize: 0x20 }
  - { offsetInCU: 0x14B24, offset: 0x20321, size: 0x8, addend: 0x0, symName: __ZNKSt3__117__compressed_pairIPNS_12basic_stringIcNS_11char_traitsIcEENS_9allocatorIcEEEERNS4_IS6_EEE5firstB7v160006Ev, symObjAddr: 0x5330, symBinAddr: 0x100009A40, symSize: 0x20 }
  - { offsetInCU: 0x14B49, offset: 0x20346, size: 0x8, addend: 0x0, symName: __ZNSt3__16vectorINS_12basic_stringIcNS_11char_traitsIcEENS_9allocatorIcEEEENS4_IS6_EEEC2ERKS8_, symObjAddr: 0x5350, symBinAddr: 0x100009A60, symSize: 0x110 }
  - { offsetInCU: 0x14BA7, offset: 0x203A4, size: 0x8, addend: 0x0, symName: __ZNSt3__116allocator_traitsINS_9allocatorINS_12basic_stringIcNS_11char_traitsIcEENS1_IcEEEEEEE37select_on_container_copy_constructionB7v160006IS7_vvEES7_RKS7_, symObjAddr: 0x5460, symBinAddr: 0x100009B70, symSize: 0x10 }
  - { offsetInCU: 0x14BDD, offset: 0x203DA, size: 0x8, addend: 0x0, symName: __ZNSt3__117__compressed_pairIPNS_12basic_stringIcNS_11char_traitsIcEENS_9allocatorIcEEEENS4_IS6_EEEC1B7v160006IDnS8_EEOT_OT0_, symObjAddr: 0x5470, symBinAddr: 0x100009B80, symSize: 0x30 }
  - { offsetInCU: 0x14C34, offset: 0x20431, size: 0x8, addend: 0x0, symName: __ZNSt3__16vectorINS_12basic_stringIcNS_11char_traitsIcEENS_9allocatorIcEEEENS4_IS6_EEE11__vallocateB7v160006Em, symObjAddr: 0x54E0, symBinAddr: 0x100009BF0, symSize: 0xA0 }
  - { offsetInCU: 0x14C77, offset: 0x20474, size: 0x8, addend: 0x0, symName: __ZNSt3__16vectorINS_12basic_stringIcNS_11char_traitsIcEENS_9allocatorIcEEEENS4_IS6_EEE18__construct_at_endIPS6_Li0EEEvT_SB_m, symObjAddr: 0x5580, symBinAddr: 0x100009C90, symSize: 0xA0 }
  - { offsetInCU: 0x14CE9, offset: 0x204E6, size: 0x8, addend: 0x0, symName: __ZNSt3__128__exception_guard_exceptionsINS_6vectorINS_12basic_stringIcNS_11char_traitsIcEENS_9allocatorIcEEEENS5_IS7_EEE16__destroy_vectorEE10__completeB7v160006Ev, symObjAddr: 0x5620, symBinAddr: 0x100009D30, symSize: 0x20 }
  - { offsetInCU: 0x14D0E, offset: 0x2050B, size: 0x8, addend: 0x0, symName: __ZNSt3__128__exception_guard_exceptionsINS_6vectorINS_12basic_stringIcNS_11char_traitsIcEENS_9allocatorIcEEEENS5_IS7_EEE16__destroy_vectorEED1B7v160006Ev, symObjAddr: 0x5640, symBinAddr: 0x100009D50, symSize: 0x20 }
  - { offsetInCU: 0x14D37, offset: 0x20534, size: 0x8, addend: 0x0, symName: __ZNSt3__117__compressed_pairIPNS_12basic_stringIcNS_11char_traitsIcEENS_9allocatorIcEEEENS4_IS6_EEEC2B7v160006IDnS8_EEOT_OT0_, symObjAddr: 0x5660, symBinAddr: 0x100009D70, symSize: 0x40 }
  - { offsetInCU: 0x14D8E, offset: 0x2058B, size: 0x8, addend: 0x0, symName: __ZNSt3__122__compressed_pair_elemINS_9allocatorINS_12basic_stringIcNS_11char_traitsIcEENS1_IcEEEEEELi1ELb1EEC2B7v160006IS7_vEEOT_, symObjAddr: 0x56A0, symBinAddr: 0x100009DB0, symSize: 0x10 }
  - { offsetInCU: 0x14DD0, offset: 0x205CD, size: 0x8, addend: 0x0, symName: __ZNSt3__128__exception_guard_exceptionsINS_6vectorINS_12basic_stringIcNS_11char_traitsIcEENS_9allocatorIcEEEENS5_IS7_EEE16__destroy_vectorEEC1B7v160006ESA_, symObjAddr: 0x56B0, symBinAddr: 0x100009DC0, symSize: 0x30 }
  - { offsetInCU: 0x14E07, offset: 0x20604, size: 0x8, addend: 0x0, symName: __ZNSt3__128__exception_guard_exceptionsINS_6vectorINS_12basic_stringIcNS_11char_traitsIcEENS_9allocatorIcEEEENS5_IS7_EEE16__destroy_vectorEEC2B7v160006ESA_, symObjAddr: 0x56E0, symBinAddr: 0x100009DF0, symSize: 0x20 }
  - { offsetInCU: 0x14E3E, offset: 0x2063B, size: 0x8, addend: 0x0, symName: __ZNSt3__129_AllocatorDestroyRangeReverseINS_9allocatorINS_12basic_stringIcNS_11char_traitsIcEENS1_IcEEEEEEPS6_EC1B7v160006ERS7_RS8_SB_, symObjAddr: 0x5870, symBinAddr: 0x100009F80, symSize: 0x40 }
  - { offsetInCU: 0x14E94, offset: 0x20691, size: 0x8, addend: 0x0, symName: __ZNSt3__116allocator_traitsINS_9allocatorINS_12basic_stringIcNS_11char_traitsIcEENS1_IcEEEEEEE9constructB7v160006IS6_JRS6_EvEEvRS7_PT_DpOT0_, symObjAddr: 0x58B0, symBinAddr: 0x100009FC0, symSize: 0x30 }
  - { offsetInCU: 0x14EEE, offset: 0x206EB, size: 0x8, addend: 0x0, symName: __ZNSt3__128__exception_guard_exceptionsINS_29_AllocatorDestroyRangeReverseINS_9allocatorINS_12basic_stringIcNS_11char_traitsIcEENS2_IcEEEEEEPS7_EEE10__completeB7v160006Ev, symObjAddr: 0x58E0, symBinAddr: 0x100009FF0, symSize: 0x20 }
  - { offsetInCU: 0x14F13, offset: 0x20710, size: 0x8, addend: 0x0, symName: __ZNSt3__128__exception_guard_exceptionsINS_29_AllocatorDestroyRangeReverseINS_9allocatorINS_12basic_stringIcNS_11char_traitsIcEENS2_IcEEEEEEPS7_EEED1B7v160006Ev, symObjAddr: 0x5900, symBinAddr: 0x10000A010, symSize: 0x20 }
  - { offsetInCU: 0x14F3C, offset: 0x20739, size: 0x8, addend: 0x0, symName: __ZNSt3__128__exception_guard_exceptionsINS_29_AllocatorDestroyRangeReverseINS_9allocatorINS_12basic_stringIcNS_11char_traitsIcEENS2_IcEEEEEEPS7_EEEC1B7v160006ESA_, symObjAddr: 0x5920, symBinAddr: 0x10000A030, symSize: 0x40 }
  - { offsetInCU: 0x14F73, offset: 0x20770, size: 0x8, addend: 0x0, symName: __ZNSt3__128__exception_guard_exceptionsINS_29_AllocatorDestroyRangeReverseINS_9allocatorINS_12basic_stringIcNS_11char_traitsIcEENS2_IcEEEEEEPS7_EEEC2B7v160006ESA_, symObjAddr: 0x5960, symBinAddr: 0x10000A070, symSize: 0x30 }
  - { offsetInCU: 0x14FAA, offset: 0x207A7, size: 0x8, addend: 0x0, symName: __ZNSt3__129_AllocatorDestroyRangeReverseINS_9allocatorINS_12basic_stringIcNS_11char_traitsIcEENS1_IcEEEEEEPS6_EC2B7v160006ERS7_RS8_SB_, symObjAddr: 0x5990, symBinAddr: 0x10000A0A0, symSize: 0x40 }
  - { offsetInCU: 0x15000, offset: 0x207FD, size: 0x8, addend: 0x0, symName: __ZNSt3__19allocatorINS_12basic_stringIcNS_11char_traitsIcEENS0_IcEEEEE9constructB7v160006IS5_JRS5_EEEvPT_DpOT0_, symObjAddr: 0x59D0, symBinAddr: 0x10000A0E0, symSize: 0x30 }
  - { offsetInCU: 0x15057, offset: 0x20854, size: 0x8, addend: 0x0, symName: __ZNSt3__128__exception_guard_exceptionsINS_29_AllocatorDestroyRangeReverseINS_9allocatorINS_12basic_stringIcNS_11char_traitsIcEENS2_IcEEEEEEPS7_EEED2B7v160006Ev, symObjAddr: 0x5A00, symBinAddr: 0x10000A110, symSize: 0x30 }
  - { offsetInCU: 0x15080, offset: 0x2087D, size: 0x8, addend: 0x0, symName: __ZNKSt3__129_AllocatorDestroyRangeReverseINS_9allocatorINS_12basic_stringIcNS_11char_traitsIcEENS1_IcEEEEEEPS6_EclB7v160006Ev, symObjAddr: 0x5A30, symBinAddr: 0x10000A140, symSize: 0x60 }
  - { offsetInCU: 0x150A5, offset: 0x208A2, size: 0x8, addend: 0x0, symName: __ZNSt3__128__exception_guard_exceptionsINS_6vectorINS_12basic_stringIcNS_11char_traitsIcEENS_9allocatorIcEEEENS5_IS7_EEE16__destroy_vectorEED2B7v160006Ev, symObjAddr: 0x5B00, symBinAddr: 0x10000A210, symSize: 0x30 }
  - { offsetInCU: 0x150CE, offset: 0x208CB, size: 0x8, addend: 0x0, symName: __ZNSt3__16vectorI6VertexNS_9allocatorIS1_EEE9__end_capB7v160006Ev, symObjAddr: 0x5B30, symBinAddr: 0x10000A240, symSize: 0x20 }
  - { offsetInCU: 0x150F3, offset: 0x208F0, size: 0x8, addend: 0x0, symName: __ZNSt3__16vectorI6VertexNS_9allocatorIS1_EEE22__construct_one_at_endB7v160006IJRKS1_EEEvDpOT_, symObjAddr: 0x5B50, symBinAddr: 0x10000A260, symSize: 0xA0 }
  - { offsetInCU: 0x15143, offset: 0x20940, size: 0x8, addend: 0x0, symName: __ZNSt3__16vectorI6VertexNS_9allocatorIS1_EEE21__push_back_slow_pathIRKS1_EEvOT_, symObjAddr: 0x5BF0, symBinAddr: 0x10000A300, symSize: 0xE0 }
  - { offsetInCU: 0x1519F, offset: 0x2099C, size: 0x8, addend: 0x0, symName: __ZNSt3__117__compressed_pairIP6VertexNS_9allocatorIS1_EEE5firstB7v160006Ev, symObjAddr: 0x5CD0, symBinAddr: 0x10000A3E0, symSize: 0x20 }
  - { offsetInCU: 0x151C4, offset: 0x209C1, size: 0x8, addend: 0x0, symName: __ZNSt3__122__compressed_pair_elemIP6VertexLi0ELb0EE5__getB7v160006Ev, symObjAddr: 0x5CF0, symBinAddr: 0x10000A400, symSize: 0x10 }
  - { offsetInCU: 0x15202, offset: 0x209FF, size: 0x8, addend: 0x0, symName: __ZNSt3__16vectorI6VertexNS_9allocatorIS1_EEE21_ConstructTransactionC1B7v160006ERS4_m, symObjAddr: 0x5D00, symBinAddr: 0x10000A410, symSize: 0x30 }
  - { offsetInCU: 0x15249, offset: 0x20A46, size: 0x8, addend: 0x0, symName: __ZNSt3__116allocator_traitsINS_9allocatorI6VertexEEE9constructB7v160006IS2_JRKS2_EvEEvRS3_PT_DpOT0_, symObjAddr: 0x5D30, symBinAddr: 0x10000A440, symSize: 0x30 }
  - { offsetInCU: 0x152A3, offset: 0x20AA0, size: 0x8, addend: 0x0, symName: __ZNSt3__16vectorI6VertexNS_9allocatorIS1_EEE21_ConstructTransactionD1B7v160006Ev, symObjAddr: 0x5D60, symBinAddr: 0x10000A470, symSize: 0x20 }
  - { offsetInCU: 0x152CC, offset: 0x20AC9, size: 0x8, addend: 0x0, symName: __ZNSt3__16vectorI6VertexNS_9allocatorIS1_EEE21_ConstructTransactionC2B7v160006ERS4_m, symObjAddr: 0x5D80, symBinAddr: 0x10000A490, symSize: 0x40 }
  - { offsetInCU: 0x15313, offset: 0x20B10, size: 0x8, addend: 0x0, symName: __ZNSt3__19allocatorI6VertexE9constructB7v160006IS1_JRKS1_EEEvPT_DpOT0_, symObjAddr: 0x5DC0, symBinAddr: 0x10000A4D0, symSize: 0x30 }
  - { offsetInCU: 0x1536A, offset: 0x20B67, size: 0x8, addend: 0x0, symName: __ZNSt3__16vectorI6VertexNS_9allocatorIS1_EEE21_ConstructTransactionD2B7v160006Ev, symObjAddr: 0x5DF0, symBinAddr: 0x10000A500, symSize: 0x20 }
  - { offsetInCU: 0x15393, offset: 0x20B90, size: 0x8, addend: 0x0, symName: __ZNKSt3__16vectorI6VertexNS_9allocatorIS1_EEE11__recommendB7v160006Em, symObjAddr: 0x5E10, symBinAddr: 0x10000A520, symSize: 0xA0 }
  - { offsetInCU: 0x153E6, offset: 0x20BE3, size: 0x8, addend: 0x0, symName: __ZNSt3__114__split_bufferI6VertexRNS_9allocatorIS1_EEEC1EmmS4_, symObjAddr: 0x5EB0, symBinAddr: 0x10000A5C0, symSize: 0x40 }
  - { offsetInCU: 0x1543A, offset: 0x20C37, size: 0x8, addend: 0x0, symName: __ZNSt3__114__split_bufferI6VertexRNS_9allocatorIS1_EEED1Ev, symObjAddr: 0x6020, symBinAddr: 0x10000A730, symSize: 0x20 }
  - { offsetInCU: 0x15464, offset: 0x20C61, size: 0x8, addend: 0x0, symName: __ZNKSt3__16vectorI6VertexNS_9allocatorIS1_EEE8max_sizeEv, symObjAddr: 0x6040, symBinAddr: 0x10000A750, symSize: 0x70 }
  - { offsetInCU: 0x1548A, offset: 0x20C87, size: 0x8, addend: 0x0, symName: __ZNKSt3__16vectorI6VertexNS_9allocatorIS1_EEE20__throw_length_errorB7v160006Ev, symObjAddr: 0x60B0, symBinAddr: 0x10000A7C0, symSize: 0x20 }
  - { offsetInCU: 0x154B9, offset: 0x20CB6, size: 0x8, addend: 0x0, symName: __ZNSt3__116allocator_traitsINS_9allocatorI6VertexEEE8max_sizeB7v160006IS3_vEEmRKS3_, symObjAddr: 0x60D0, symBinAddr: 0x10000A7E0, symSize: 0x20 }
  - { offsetInCU: 0x154E8, offset: 0x20CE5, size: 0x8, addend: 0x0, symName: __ZNKSt3__16vectorI6VertexNS_9allocatorIS1_EEE7__allocB7v160006Ev, symObjAddr: 0x60F0, symBinAddr: 0x10000A800, symSize: 0x20 }
  - { offsetInCU: 0x1550D, offset: 0x20D0A, size: 0x8, addend: 0x0, symName: __ZNKSt3__19allocatorI6VertexE8max_sizeB7v160006Ev, symObjAddr: 0x6110, symBinAddr: 0x10000A820, symSize: 0x20 }
  - { offsetInCU: 0x15532, offset: 0x20D2F, size: 0x8, addend: 0x0, symName: __ZNKSt3__117__compressed_pairIP6VertexNS_9allocatorIS1_EEE6secondB7v160006Ev, symObjAddr: 0x6130, symBinAddr: 0x10000A840, symSize: 0x20 }
  - { offsetInCU: 0x15557, offset: 0x20D54, size: 0x8, addend: 0x0, symName: __ZNKSt3__122__compressed_pair_elemINS_9allocatorI6VertexEELi1ELb1EE5__getB7v160006Ev, symObjAddr: 0x6150, symBinAddr: 0x10000A860, symSize: 0x10 }
  - { offsetInCU: 0x1557C, offset: 0x20D79, size: 0x8, addend: 0x0, symName: __ZNSt3__114__split_bufferI6VertexRNS_9allocatorIS1_EEEC2EmmS4_, symObjAddr: 0x6160, symBinAddr: 0x10000A870, symSize: 0xD0 }
  - { offsetInCU: 0x155ED, offset: 0x20DEA, size: 0x8, addend: 0x0, symName: __ZNSt3__117__compressed_pairIP6VertexRNS_9allocatorIS1_EEEC1B7v160006IDnS5_EEOT_OT0_, symObjAddr: 0x6230, symBinAddr: 0x10000A940, symSize: 0x30 }
  - { offsetInCU: 0x15644, offset: 0x20E41, size: 0x8, addend: 0x0, symName: __ZNSt3__114__split_bufferI6VertexRNS_9allocatorIS1_EEE7__allocB7v160006Ev, symObjAddr: 0x62A0, symBinAddr: 0x10000A9B0, symSize: 0x20 }
  - { offsetInCU: 0x15669, offset: 0x20E66, size: 0x8, addend: 0x0, symName: __ZNSt3__114__split_bufferI6VertexRNS_9allocatorIS1_EEE9__end_capB7v160006Ev, symObjAddr: 0x62C0, symBinAddr: 0x10000A9D0, symSize: 0x20 }
  - { offsetInCU: 0x1568E, offset: 0x20E8B, size: 0x8, addend: 0x0, symName: __ZNSt3__117__compressed_pairIP6VertexRNS_9allocatorIS1_EEEC2B7v160006IDnS5_EEOT_OT0_, symObjAddr: 0x62E0, symBinAddr: 0x10000A9F0, symSize: 0x40 }
  - { offsetInCU: 0x156E5, offset: 0x20EE2, size: 0x8, addend: 0x0, symName: __ZNSt3__122__compressed_pair_elemIRNS_9allocatorI6VertexEELi1ELb0EEC2B7v160006IS4_vEEOT_, symObjAddr: 0x6320, symBinAddr: 0x10000AA30, symSize: 0x20 }
  - { offsetInCU: 0x15727, offset: 0x20F24, size: 0x8, addend: 0x0, symName: __ZNSt3__19allocatorI6VertexE8allocateB7v160006Em, symObjAddr: 0x6340, symBinAddr: 0x10000AA50, symSize: 0x80 }
  - { offsetInCU: 0x1575A, offset: 0x20F57, size: 0x8, addend: 0x0, symName: __ZNSt3__117__compressed_pairIP6VertexRNS_9allocatorIS1_EEE6secondB7v160006Ev, symObjAddr: 0x63C0, symBinAddr: 0x10000AAD0, symSize: 0x20 }
  - { offsetInCU: 0x1577F, offset: 0x20F7C, size: 0x8, addend: 0x0, symName: __ZNSt3__122__compressed_pair_elemIRNS_9allocatorI6VertexEELi1ELb0EE5__getB7v160006Ev, symObjAddr: 0x63E0, symBinAddr: 0x10000AAF0, symSize: 0x20 }
  - { offsetInCU: 0x157A4, offset: 0x20FA1, size: 0x8, addend: 0x0, symName: __ZNSt3__117__compressed_pairIP6VertexRNS_9allocatorIS1_EEE5firstB7v160006Ev, symObjAddr: 0x6400, symBinAddr: 0x10000AB10, symSize: 0x20 }
  - { offsetInCU: 0x157C9, offset: 0x20FC6, size: 0x8, addend: 0x0, symName: __ZNSt3__116reverse_iteratorIP6VertexEC1B7v160006ES2_, symObjAddr: 0x65B0, symBinAddr: 0x10000ACC0, symSize: 0x30 }
  - { offsetInCU: 0x15800, offset: 0x20FFD, size: 0x8, addend: 0x0, symName: __ZNKSt3__116reverse_iteratorIP6VertexE4baseB7v160006Ev, symObjAddr: 0x65E0, symBinAddr: 0x10000ACF0, symSize: 0x20 }
  - { offsetInCU: 0x15825, offset: 0x21022, size: 0x8, addend: 0x0, symName: __ZNKSt3__16vectorI6VertexNS_9allocatorIS1_EEE14__annotate_newB7v160006Em, symObjAddr: 0x6640, symBinAddr: 0x10000AD50, symSize: 0xB0 }
  - { offsetInCU: 0x15859, offset: 0x21056, size: 0x8, addend: 0x0, symName: __ZNSt3__129_AllocatorDestroyRangeReverseINS_9allocatorI6VertexEENS_16reverse_iteratorIPS2_EEEC1B7v160006ERS3_RS6_S9_, symObjAddr: 0x6760, symBinAddr: 0x10000AE70, symSize: 0x40 }
  - { offsetInCU: 0x158B4, offset: 0x210B1, size: 0x8, addend: 0x0, symName: __ZNSt3__116allocator_traitsINS_9allocatorI6VertexEEE9constructB7v160006IS2_JS2_EvEEvRS3_PT_DpOT0_, symObjAddr: 0x67E0, symBinAddr: 0x10000AEF0, symSize: 0x30 }
  - { offsetInCU: 0x1590E, offset: 0x2110B, size: 0x8, addend: 0x0, symName: __ZNKSt3__116reverse_iteratorIP6VertexEdeB7v160006Ev, symObjAddr: 0x6830, symBinAddr: 0x10000AF40, symSize: 0x30 }
  - { offsetInCU: 0x15941, offset: 0x2113E, size: 0x8, addend: 0x0, symName: __ZNSt3__116reverse_iteratorIP6VertexEppB7v160006Ev, symObjAddr: 0x6860, symBinAddr: 0x10000AF70, symSize: 0x20 }
  - { offsetInCU: 0x15966, offset: 0x21163, size: 0x8, addend: 0x0, symName: __ZNSt3__128__exception_guard_exceptionsINS_29_AllocatorDestroyRangeReverseINS_9allocatorI6VertexEENS_16reverse_iteratorIPS3_EEEEE10__completeB7v160006Ev, symObjAddr: 0x6880, symBinAddr: 0x10000AF90, symSize: 0x20 }
  - { offsetInCU: 0x1598B, offset: 0x21188, size: 0x8, addend: 0x0, symName: __ZNSt3__128__exception_guard_exceptionsINS_29_AllocatorDestroyRangeReverseINS_9allocatorI6VertexEENS_16reverse_iteratorIPS3_EEEEED1B7v160006Ev, symObjAddr: 0x68A0, symBinAddr: 0x10000AFB0, symSize: 0x20 }
  - { offsetInCU: 0x159B4, offset: 0x211B1, size: 0x8, addend: 0x0, symName: __ZNSt3__128__exception_guard_exceptionsINS_29_AllocatorDestroyRangeReverseINS_9allocatorI6VertexEENS_16reverse_iteratorIPS3_EEEEEC1B7v160006ES8_, symObjAddr: 0x68C0, symBinAddr: 0x10000AFD0, symSize: 0x40 }
  - { offsetInCU: 0x159EB, offset: 0x211E8, size: 0x8, addend: 0x0, symName: __ZNSt3__128__exception_guard_exceptionsINS_29_AllocatorDestroyRangeReverseINS_9allocatorI6VertexEENS_16reverse_iteratorIPS3_EEEEEC2B7v160006ES8_, symObjAddr: 0x6900, symBinAddr: 0x10000B010, symSize: 0x30 }
  - { offsetInCU: 0x15A22, offset: 0x2121F, size: 0x8, addend: 0x0, symName: __ZNSt3__129_AllocatorDestroyRangeReverseINS_9allocatorI6VertexEENS_16reverse_iteratorIPS2_EEEC2B7v160006ERS3_RS6_S9_, symObjAddr: 0x6930, symBinAddr: 0x10000B040, symSize: 0x40 }
  - { offsetInCU: 0x15A78, offset: 0x21275, size: 0x8, addend: 0x0, symName: __ZNSt3__19allocatorI6VertexE9constructB7v160006IS1_JS1_EEEvPT_DpOT0_, symObjAddr: 0x6970, symBinAddr: 0x10000B080, symSize: 0x30 }
  - { offsetInCU: 0x15AD4, offset: 0x212D1, size: 0x8, addend: 0x0, symName: __ZNSt3__119__to_address_helperINS_16reverse_iteratorIP6VertexEEvE6__callB7v160006ERKS4_, symObjAddr: 0x69A0, symBinAddr: 0x10000B0B0, symSize: 0x50 }
  - { offsetInCU: 0x15AF7, offset: 0x212F4, size: 0x8, addend: 0x0, symName: __ZNKSt3__116reverse_iteratorIP6VertexEptB7v160006Ev, symObjAddr: 0x69F0, symBinAddr: 0x10000B100, symSize: 0x20 }
  - { offsetInCU: 0x15B1C, offset: 0x21319, size: 0x8, addend: 0x0, symName: __ZNSt3__128__exception_guard_exceptionsINS_29_AllocatorDestroyRangeReverseINS_9allocatorI6VertexEENS_16reverse_iteratorIPS3_EEEEED2B7v160006Ev, symObjAddr: 0x6A10, symBinAddr: 0x10000B120, symSize: 0x30 }
  - { offsetInCU: 0x15B45, offset: 0x21342, size: 0x8, addend: 0x0, symName: __ZNKSt3__129_AllocatorDestroyRangeReverseINS_9allocatorI6VertexEENS_16reverse_iteratorIPS2_EEEclB7v160006Ev, symObjAddr: 0x6A40, symBinAddr: 0x10000B150, symSize: 0xF0 }
  - { offsetInCU: 0x15B6B, offset: 0x21368, size: 0x8, addend: 0x0, symName: __ZNSt3__116reverse_iteratorINS0_IP6VertexEEEC1B7v160006ES3_, symObjAddr: 0x6BA0, symBinAddr: 0x10000B2B0, symSize: 0x30 }
  - { offsetInCU: 0x15BA2, offset: 0x2139F, size: 0x8, addend: 0x0, symName: __ZNSt3__116reverse_iteratorINS0_IP6VertexEEEppB7v160006Ev, symObjAddr: 0x6C40, symBinAddr: 0x10000B350, symSize: 0x30 }
  - { offsetInCU: 0x15BC7, offset: 0x213C4, size: 0x8, addend: 0x0, symName: __ZNKSt3__116reverse_iteratorINS0_IP6VertexEEE4baseB7v160006Ev, symObjAddr: 0x6C70, symBinAddr: 0x10000B380, symSize: 0x20 }
  - { offsetInCU: 0x15BF1, offset: 0x213EE, size: 0x8, addend: 0x0, symName: __ZNSt3__119__to_address_helperINS_16reverse_iteratorINS1_IP6VertexEEEEvE6__callB7v160006ERKS5_, symObjAddr: 0x6C90, symBinAddr: 0x10000B3A0, symSize: 0x50 }
  - { offsetInCU: 0x15C14, offset: 0x21411, size: 0x8, addend: 0x0, symName: __ZNKSt3__116reverse_iteratorINS0_IP6VertexEEEptB7v160006Ev, symObjAddr: 0x6CE0, symBinAddr: 0x10000B3F0, symSize: 0x20 }
  - { offsetInCU: 0x15C39, offset: 0x21436, size: 0x8, addend: 0x0, symName: __ZNKSt3__116reverse_iteratorINS0_IP6VertexEEEdeB7v160006Ev, symObjAddr: 0x6D00, symBinAddr: 0x10000B410, symSize: 0x40 }
  - { offsetInCU: 0x15C6C, offset: 0x21469, size: 0x8, addend: 0x0, symName: __ZNSt3__116reverse_iteratorIP6VertexEmmB7v160006Ev, symObjAddr: 0x6D40, symBinAddr: 0x10000B450, symSize: 0x20 }
  - { offsetInCU: 0x15C91, offset: 0x2148E, size: 0x8, addend: 0x0, symName: __ZNSt3__116reverse_iteratorINS0_IP6VertexEEEC2B7v160006ES3_, symObjAddr: 0x6D60, symBinAddr: 0x10000B470, symSize: 0x40 }
  - { offsetInCU: 0x15CC8, offset: 0x214C5, size: 0x8, addend: 0x0, symName: __ZNSt3__116reverse_iteratorIP6VertexEC2B7v160006ES2_, symObjAddr: 0x6DA0, symBinAddr: 0x10000B4B0, symSize: 0x30 }
  - { offsetInCU: 0x15CFF, offset: 0x214FC, size: 0x8, addend: 0x0, symName: __ZNSt3__114__split_bufferI6VertexRNS_9allocatorIS1_EEED2Ev, symObjAddr: 0x6DD0, symBinAddr: 0x10000B4E0, symSize: 0x60 }
  - { offsetInCU: 0x15D29, offset: 0x21526, size: 0x8, addend: 0x0, symName: __ZNSt3__114__split_bufferI6VertexRNS_9allocatorIS1_EEE5clearB7v160006Ev, symObjAddr: 0x6E30, symBinAddr: 0x10000B540, symSize: 0x20 }
  - { offsetInCU: 0x15D4E, offset: 0x2154B, size: 0x8, addend: 0x0, symName: __ZNKSt3__114__split_bufferI6VertexRNS_9allocatorIS1_EEE8capacityB7v160006Ev, symObjAddr: 0x6E50, symBinAddr: 0x10000B560, symSize: 0x30 }
  - { offsetInCU: 0x15D73, offset: 0x21570, size: 0x8, addend: 0x0, symName: __ZNSt3__114__split_bufferI6VertexRNS_9allocatorIS1_EEE17__destruct_at_endB7v160006EPS1_, symObjAddr: 0x6E80, symBinAddr: 0x10000B590, symSize: 0x30 }
  - { offsetInCU: 0x15DA6, offset: 0x215A3, size: 0x8, addend: 0x0, symName: __ZNSt3__114__split_bufferI6VertexRNS_9allocatorIS1_EEE17__destruct_at_endB7v160006EPS1_NS_17integral_constantIbLb0EEE, symObjAddr: 0x6EB0, symBinAddr: 0x10000B5C0, symSize: 0x80 }
  - { offsetInCU: 0x15DE5, offset: 0x215E2, size: 0x8, addend: 0x0, symName: __ZNKSt3__114__split_bufferI6VertexRNS_9allocatorIS1_EEE9__end_capB7v160006Ev, symObjAddr: 0x6F30, symBinAddr: 0x10000B640, symSize: 0x20 }
  - { offsetInCU: 0x15E0A, offset: 0x21607, size: 0x8, addend: 0x0, symName: __ZNKSt3__117__compressed_pairIP6VertexRNS_9allocatorIS1_EEE5firstB7v160006Ev, symObjAddr: 0x6F50, symBinAddr: 0x10000B660, symSize: 0x20 }
  - { offsetInCU: 0x15E2F, offset: 0x2162C, size: 0x8, addend: 0x0, symName: __ZNSt3__16vectorIiNS_9allocatorIiEEEC2B7v160006Ev, symObjAddr: 0x6F70, symBinAddr: 0x10000B680, symSize: 0x50 }
  - { offsetInCU: 0x15E58, offset: 0x21655, size: 0x8, addend: 0x0, symName: __ZNSt3__117__compressed_pairIPiNS_9allocatorIiEEEC1B7v160006IDnNS_18__default_init_tagEEEOT_OT0_, symObjAddr: 0x6FC0, symBinAddr: 0x10000B6D0, symSize: 0x30 }
  - { offsetInCU: 0x15EAF, offset: 0x216AC, size: 0x8, addend: 0x0, symName: __ZNSt3__117__compressed_pairIPiNS_9allocatorIiEEEC2B7v160006IDnNS_18__default_init_tagEEEOT_OT0_, symObjAddr: 0x7000, symBinAddr: 0x10000B710, symSize: 0x40 }
  - { offsetInCU: 0x15F06, offset: 0x21703, size: 0x8, addend: 0x0, symName: __ZNSt3__122__compressed_pair_elemIPiLi0ELb0EEC2B7v160006IDnvEEOT_, symObjAddr: 0x7040, symBinAddr: 0x10000B750, symSize: 0x20 }
  - { offsetInCU: 0x15F48, offset: 0x21745, size: 0x8, addend: 0x0, symName: __ZNSt3__122__compressed_pair_elemINS_9allocatorIiEELi1ELb1EEC2B7v160006ENS_18__default_init_tagE, symObjAddr: 0x7060, symBinAddr: 0x10000B770, symSize: 0x20 }
  - { offsetInCU: 0x15F7C, offset: 0x21779, size: 0x8, addend: 0x0, symName: __ZNSt3__19allocatorIiEC2B7v160006Ev, symObjAddr: 0x7080, symBinAddr: 0x10000B790, symSize: 0x20 }
  - { offsetInCU: 0x15FA5, offset: 0x217A2, size: 0x8, addend: 0x0, symName: __ZNSt3__116__non_trivial_ifILb1ENS_9allocatorIiEEEC2B7v160006Ev, symObjAddr: 0x70A0, symBinAddr: 0x10000B7B0, symSize: 0x10 }
  - { offsetInCU: 0x15FCE, offset: 0x217CB, size: 0x8, addend: 0x0, symName: __ZNSt3__16vectorIiNS_9allocatorIiEEED2B7v160006Ev, symObjAddr: 0x70B0, symBinAddr: 0x10000B7C0, symSize: 0x30 }
  - { offsetInCU: 0x15FF7, offset: 0x217F4, size: 0x8, addend: 0x0, symName: __ZNSt3__16vectorIiNS_9allocatorIiEEE16__destroy_vectorC1ERS3_, symObjAddr: 0x70E0, symBinAddr: 0x10000B7F0, symSize: 0x30 }
  - { offsetInCU: 0x1602F, offset: 0x2182C, size: 0x8, addend: 0x0, symName: __ZNSt3__16vectorIiNS_9allocatorIiEEE16__destroy_vectorclB7v160006Ev, symObjAddr: 0x7110, symBinAddr: 0x10000B820, symSize: 0x90 }
  - { offsetInCU: 0x16054, offset: 0x21851, size: 0x8, addend: 0x0, symName: __ZNSt3__16vectorIiNS_9allocatorIiEEE16__destroy_vectorC2ERS3_, symObjAddr: 0x71A0, symBinAddr: 0x10000B8B0, symSize: 0x20 }
  - { offsetInCU: 0x1608C, offset: 0x21889, size: 0x8, addend: 0x0, symName: __ZNKSt3__16vectorIiNS_9allocatorIiEEE17__annotate_deleteB7v160006Ev, symObjAddr: 0x71C0, symBinAddr: 0x10000B8D0, symSize: 0xB0 }
  - { offsetInCU: 0x160B1, offset: 0x218AE, size: 0x8, addend: 0x0, symName: __ZNSt3__16vectorIiNS_9allocatorIiEEE7__clearB7v160006Ev, symObjAddr: 0x7280, symBinAddr: 0x10000B990, symSize: 0x20 }
  - { offsetInCU: 0x160D6, offset: 0x218D3, size: 0x8, addend: 0x0, symName: __ZNSt3__116allocator_traitsINS_9allocatorIiEEE10deallocateB7v160006ERS2_Pim, symObjAddr: 0x72A0, symBinAddr: 0x10000B9B0, symSize: 0x30 }
  - { offsetInCU: 0x16118, offset: 0x21915, size: 0x8, addend: 0x0, symName: __ZNSt3__16vectorIiNS_9allocatorIiEEE7__allocB7v160006Ev, symObjAddr: 0x72D0, symBinAddr: 0x10000B9E0, symSize: 0x20 }
  - { offsetInCU: 0x1613D, offset: 0x2193A, size: 0x8, addend: 0x0, symName: __ZNKSt3__16vectorIiNS_9allocatorIiEEE8capacityB7v160006Ev, symObjAddr: 0x72F0, symBinAddr: 0x10000BA00, symSize: 0x30 }
  - { offsetInCU: 0x16162, offset: 0x2195F, size: 0x8, addend: 0x0, symName: __ZNKSt3__16vectorIiNS_9allocatorIiEEE31__annotate_contiguous_containerB7v160006EPKvS5_S5_S5_, symObjAddr: 0x7320, symBinAddr: 0x10000BA30, symSize: 0x20 }
  - { offsetInCU: 0x161B7, offset: 0x219B4, size: 0x8, addend: 0x0, symName: __ZNKSt3__16vectorIiNS_9allocatorIiEEE4dataB7v160006Ev, symObjAddr: 0x7340, symBinAddr: 0x10000BA50, symSize: 0x20 }
  - { offsetInCU: 0x161DC, offset: 0x219D9, size: 0x8, addend: 0x0, symName: __ZNKSt3__16vectorIiNS_9allocatorIiEEE4sizeB7v160006Ev, symObjAddr: 0x7360, symBinAddr: 0x10000BA70, symSize: 0x20 }
  - { offsetInCU: 0x16201, offset: 0x219FE, size: 0x8, addend: 0x0, symName: __ZNSt3__16vectorIiNS_9allocatorIiEEE22__base_destruct_at_endB7v160006EPi, symObjAddr: 0x7390, symBinAddr: 0x10000BAA0, symSize: 0x90 }
  - { offsetInCU: 0x16244, offset: 0x21A41, size: 0x8, addend: 0x0, symName: __ZNSt3__116allocator_traitsINS_9allocatorIiEEE7destroyB7v160006IivEEvRS2_PT_, symObjAddr: 0x7420, symBinAddr: 0x10000BB30, symSize: 0x30 }
  - { offsetInCU: 0x16282, offset: 0x21A7F, size: 0x8, addend: 0x0, symName: __ZNSt3__19allocatorIiE7destroyB7v160006EPi, symObjAddr: 0x7450, symBinAddr: 0x10000BB60, symSize: 0x10 }
  - { offsetInCU: 0x162B5, offset: 0x21AB2, size: 0x8, addend: 0x0, symName: __ZNSt3__19allocatorIiE10deallocateB7v160006EPim, symObjAddr: 0x7460, symBinAddr: 0x10000BB70, symSize: 0x70 }
  - { offsetInCU: 0x162F6, offset: 0x21AF3, size: 0x8, addend: 0x0, symName: __ZNSt3__117__compressed_pairIPiNS_9allocatorIiEEE6secondB7v160006Ev, symObjAddr: 0x74D0, symBinAddr: 0x10000BBE0, symSize: 0x20 }
  - { offsetInCU: 0x1631B, offset: 0x21B18, size: 0x8, addend: 0x0, symName: __ZNSt3__122__compressed_pair_elemINS_9allocatorIiEELi1ELb1EE5__getB7v160006Ev, symObjAddr: 0x74F0, symBinAddr: 0x10000BC00, symSize: 0x10 }
  - { offsetInCU: 0x16340, offset: 0x21B3D, size: 0x8, addend: 0x0, symName: __ZNKSt3__16vectorIiNS_9allocatorIiEEE9__end_capB7v160006Ev, symObjAddr: 0x7500, symBinAddr: 0x10000BC10, symSize: 0x20 }
  - { offsetInCU: 0x16365, offset: 0x21B62, size: 0x8, addend: 0x0, symName: __ZNKSt3__117__compressed_pairIPiNS_9allocatorIiEEE5firstB7v160006Ev, symObjAddr: 0x7520, symBinAddr: 0x10000BC30, symSize: 0x20 }
  - { offsetInCU: 0x1638A, offset: 0x21B87, size: 0x8, addend: 0x0, symName: __ZNKSt3__122__compressed_pair_elemIPiLi0ELb0EE5__getB7v160006Ev, symObjAddr: 0x7540, symBinAddr: 0x10000BC50, symSize: 0x10 }
  - { offsetInCU: 0x163AF, offset: 0x21BAC, size: 0x8, addend: 0x0, symName: __ZNSt3__16vectorINS0_IiNS_9allocatorIiEEEENS1_IS3_EEE9__end_capB7v160006Ev, symObjAddr: 0x7550, symBinAddr: 0x10000BC60, symSize: 0x20 }
  - { offsetInCU: 0x163D4, offset: 0x21BD1, size: 0x8, addend: 0x0, symName: __ZNSt3__16vectorINS0_IiNS_9allocatorIiEEEENS1_IS3_EEE22__construct_one_at_endB7v160006IJS3_EEEvDpOT_, symObjAddr: 0x7570, symBinAddr: 0x10000BC80, symSize: 0xA0 }
  - { offsetInCU: 0x16424, offset: 0x21C21, size: 0x8, addend: 0x0, symName: __ZNSt3__16vectorINS0_IiNS_9allocatorIiEEEENS1_IS3_EEE21__push_back_slow_pathIS3_EEvOT_, symObjAddr: 0x7610, symBinAddr: 0x10000BD20, symSize: 0xE0 }
  - { offsetInCU: 0x16480, offset: 0x21C7D, size: 0x8, addend: 0x0, symName: __ZNSt3__117__compressed_pairIPNS_6vectorIiNS_9allocatorIiEEEENS2_IS4_EEE5firstB7v160006Ev, symObjAddr: 0x76F0, symBinAddr: 0x10000BE00, symSize: 0x20 }
  - { offsetInCU: 0x164A5, offset: 0x21CA2, size: 0x8, addend: 0x0, symName: __ZNSt3__122__compressed_pair_elemIPNS_6vectorIiNS_9allocatorIiEEEELi0ELb0EE5__getB7v160006Ev, symObjAddr: 0x7710, symBinAddr: 0x10000BE20, symSize: 0x10 }
  - { offsetInCU: 0x164E3, offset: 0x21CE0, size: 0x8, addend: 0x0, symName: __ZNSt3__16vectorINS0_IiNS_9allocatorIiEEEENS1_IS3_EEE21_ConstructTransactionC1B7v160006ERS5_m, symObjAddr: 0x7720, symBinAddr: 0x10000BE30, symSize: 0x30 }
  - { offsetInCU: 0x1652A, offset: 0x21D27, size: 0x8, addend: 0x0, symName: __ZNSt3__116allocator_traitsINS_9allocatorINS_6vectorIiNS1_IiEEEEEEE9constructB7v160006IS4_JS4_EvEEvRS5_PT_DpOT0_, symObjAddr: 0x7750, symBinAddr: 0x10000BE60, symSize: 0x30 }
  - { offsetInCU: 0x16584, offset: 0x21D81, size: 0x8, addend: 0x0, symName: __ZNSt3__16vectorINS0_IiNS_9allocatorIiEEEENS1_IS3_EEE21_ConstructTransactionD1B7v160006Ev, symObjAddr: 0x7780, symBinAddr: 0x10000BE90, symSize: 0x20 }
  - { offsetInCU: 0x165AD, offset: 0x21DAA, size: 0x8, addend: 0x0, symName: __ZNSt3__16vectorINS0_IiNS_9allocatorIiEEEENS1_IS3_EEE21_ConstructTransactionC2B7v160006ERS5_m, symObjAddr: 0x77A0, symBinAddr: 0x10000BEB0, symSize: 0x40 }
  - { offsetInCU: 0x165F4, offset: 0x21DF1, size: 0x8, addend: 0x0, symName: __ZNSt3__19allocatorINS_6vectorIiNS0_IiEEEEE9constructB7v160006IS3_JS3_EEEvPT_DpOT0_, symObjAddr: 0x77E0, symBinAddr: 0x10000BEF0, symSize: 0x30 }
  - { offsetInCU: 0x1664B, offset: 0x21E48, size: 0x8, addend: 0x0, symName: __ZNSt3__16vectorIiNS_9allocatorIiEEEC1B7v160006EOS3_, symObjAddr: 0x7810, symBinAddr: 0x10000BF20, symSize: 0x30 }
  - { offsetInCU: 0x16684, offset: 0x21E81, size: 0x8, addend: 0x0, symName: __ZNSt3__16vectorIiNS_9allocatorIiEEEC2B7v160006EOS3_, symObjAddr: 0x7840, symBinAddr: 0x10000BF50, symSize: 0xD0 }
  - { offsetInCU: 0x166C2, offset: 0x21EBF, size: 0x8, addend: 0x0, symName: __ZNSt3__117__compressed_pairIPiNS_9allocatorIiEEEC1B7v160006IDnS3_EEOT_OT0_, symObjAddr: 0x7910, symBinAddr: 0x10000C020, symSize: 0x30 }
  - { offsetInCU: 0x16719, offset: 0x21F16, size: 0x8, addend: 0x0, symName: __ZNSt3__16vectorIiNS_9allocatorIiEEE9__end_capB7v160006Ev, symObjAddr: 0x7950, symBinAddr: 0x10000C060, symSize: 0x20 }
  - { offsetInCU: 0x1673E, offset: 0x21F3B, size: 0x8, addend: 0x0, symName: __ZNSt3__117__compressed_pairIPiNS_9allocatorIiEEEC2B7v160006IDnS3_EEOT_OT0_, symObjAddr: 0x7970, symBinAddr: 0x10000C080, symSize: 0x40 }
  - { offsetInCU: 0x16795, offset: 0x21F92, size: 0x8, addend: 0x0, symName: __ZNSt3__122__compressed_pair_elemINS_9allocatorIiEELi1ELb1EEC2B7v160006IS2_vEEOT_, symObjAddr: 0x79B0, symBinAddr: 0x10000C0C0, symSize: 0x10 }
  - { offsetInCU: 0x167D7, offset: 0x21FD4, size: 0x8, addend: 0x0, symName: __ZNSt3__117__compressed_pairIPiNS_9allocatorIiEEE5firstB7v160006Ev, symObjAddr: 0x79C0, symBinAddr: 0x10000C0D0, symSize: 0x20 }
  - { offsetInCU: 0x167FC, offset: 0x21FF9, size: 0x8, addend: 0x0, symName: __ZNSt3__122__compressed_pair_elemIPiLi0ELb0EE5__getB7v160006Ev, symObjAddr: 0x79E0, symBinAddr: 0x10000C0F0, symSize: 0x10 }
  - { offsetInCU: 0x16821, offset: 0x2201E, size: 0x8, addend: 0x0, symName: __ZNSt3__16vectorINS0_IiNS_9allocatorIiEEEENS1_IS3_EEE21_ConstructTransactionD2B7v160006Ev, symObjAddr: 0x79F0, symBinAddr: 0x10000C100, symSize: 0x20 }
  - { offsetInCU: 0x1684A, offset: 0x22047, size: 0x8, addend: 0x0, symName: __ZNKSt3__16vectorINS0_IiNS_9allocatorIiEEEENS1_IS3_EEE11__recommendB7v160006Em, symObjAddr: 0x7A10, symBinAddr: 0x10000C120, symSize: 0xA0 }
  - { offsetInCU: 0x1689D, offset: 0x2209A, size: 0x8, addend: 0x0, symName: __ZNSt3__114__split_bufferINS_6vectorIiNS_9allocatorIiEEEERNS2_IS4_EEEC1EmmS6_, symObjAddr: 0x7AB0, symBinAddr: 0x10000C1C0, symSize: 0x40 }
  - { offsetInCU: 0x168F1, offset: 0x220EE, size: 0x8, addend: 0x0, symName: __ZNSt3__114__split_bufferINS_6vectorIiNS_9allocatorIiEEEERNS2_IS4_EEED1Ev, symObjAddr: 0x7C20, symBinAddr: 0x10000C330, symSize: 0x20 }
  - { offsetInCU: 0x1691B, offset: 0x22118, size: 0x8, addend: 0x0, symName: __ZNKSt3__16vectorINS0_IiNS_9allocatorIiEEEENS1_IS3_EEE8max_sizeEv, symObjAddr: 0x7C40, symBinAddr: 0x10000C350, symSize: 0x70 }
  - { offsetInCU: 0x16941, offset: 0x2213E, size: 0x8, addend: 0x0, symName: __ZNKSt3__16vectorINS0_IiNS_9allocatorIiEEEENS1_IS3_EEE20__throw_length_errorB7v160006Ev, symObjAddr: 0x7CB0, symBinAddr: 0x10000C3C0, symSize: 0x20 }
  - { offsetInCU: 0x16970, offset: 0x2216D, size: 0x8, addend: 0x0, symName: __ZNSt3__116allocator_traitsINS_9allocatorINS_6vectorIiNS1_IiEEEEEEE8max_sizeB7v160006IS5_vEEmRKS5_, symObjAddr: 0x7CD0, symBinAddr: 0x10000C3E0, symSize: 0x20 }
  - { offsetInCU: 0x1699F, offset: 0x2219C, size: 0x8, addend: 0x0, symName: __ZNKSt3__16vectorINS0_IiNS_9allocatorIiEEEENS1_IS3_EEE7__allocB7v160006Ev, symObjAddr: 0x7CF0, symBinAddr: 0x10000C400, symSize: 0x20 }
  - { offsetInCU: 0x169C4, offset: 0x221C1, size: 0x8, addend: 0x0, symName: __ZNKSt3__19allocatorINS_6vectorIiNS0_IiEEEEE8max_sizeB7v160006Ev, symObjAddr: 0x7D10, symBinAddr: 0x10000C420, symSize: 0x20 }
  - { offsetInCU: 0x169E9, offset: 0x221E6, size: 0x8, addend: 0x0, symName: __ZNKSt3__117__compressed_pairIPNS_6vectorIiNS_9allocatorIiEEEENS2_IS4_EEE6secondB7v160006Ev, symObjAddr: 0x7D30, symBinAddr: 0x10000C440, symSize: 0x20 }
  - { offsetInCU: 0x16A0E, offset: 0x2220B, size: 0x8, addend: 0x0, symName: __ZNKSt3__122__compressed_pair_elemINS_9allocatorINS_6vectorIiNS1_IiEEEEEELi1ELb1EE5__getB7v160006Ev, symObjAddr: 0x7D50, symBinAddr: 0x10000C460, symSize: 0x10 }
  - { offsetInCU: 0x16A33, offset: 0x22230, size: 0x8, addend: 0x0, symName: __ZNSt3__114__split_bufferINS_6vectorIiNS_9allocatorIiEEEERNS2_IS4_EEEC2EmmS6_, symObjAddr: 0x7D60, symBinAddr: 0x10000C470, symSize: 0xC0 }
  - { offsetInCU: 0x16AA4, offset: 0x222A1, size: 0x8, addend: 0x0, symName: __ZNSt3__117__compressed_pairIPNS_6vectorIiNS_9allocatorIiEEEERNS2_IS4_EEEC1B7v160006IDnS7_EEOT_OT0_, symObjAddr: 0x7E20, symBinAddr: 0x10000C530, symSize: 0x30 }
  - { offsetInCU: 0x16AFB, offset: 0x222F8, size: 0x8, addend: 0x0, symName: __ZNSt3__114__split_bufferINS_6vectorIiNS_9allocatorIiEEEERNS2_IS4_EEE7__allocB7v160006Ev, symObjAddr: 0x7E90, symBinAddr: 0x10000C5A0, symSize: 0x20 }
  - { offsetInCU: 0x16B20, offset: 0x2231D, size: 0x8, addend: 0x0, symName: __ZNSt3__114__split_bufferINS_6vectorIiNS_9allocatorIiEEEERNS2_IS4_EEE9__end_capB7v160006Ev, symObjAddr: 0x7EB0, symBinAddr: 0x10000C5C0, symSize: 0x20 }
  - { offsetInCU: 0x16B45, offset: 0x22342, size: 0x8, addend: 0x0, symName: __ZNSt3__117__compressed_pairIPNS_6vectorIiNS_9allocatorIiEEEERNS2_IS4_EEEC2B7v160006IDnS7_EEOT_OT0_, symObjAddr: 0x7ED0, symBinAddr: 0x10000C5E0, symSize: 0x40 }
  - { offsetInCU: 0x16B9C, offset: 0x22399, size: 0x8, addend: 0x0, symName: __ZNSt3__122__compressed_pair_elemIRNS_9allocatorINS_6vectorIiNS1_IiEEEEEELi1ELb0EEC2B7v160006IS6_vEEOT_, symObjAddr: 0x7F10, symBinAddr: 0x10000C620, symSize: 0x20 }
  - { offsetInCU: 0x16BDE, offset: 0x223DB, size: 0x8, addend: 0x0, symName: __ZNSt3__19allocatorINS_6vectorIiNS0_IiEEEEE8allocateB7v160006Em, symObjAddr: 0x7F30, symBinAddr: 0x10000C640, symSize: 0x80 }
  - { offsetInCU: 0x16C11, offset: 0x2240E, size: 0x8, addend: 0x0, symName: __ZNSt3__117__compressed_pairIPNS_6vectorIiNS_9allocatorIiEEEERNS2_IS4_EEE6secondB7v160006Ev, symObjAddr: 0x7FB0, symBinAddr: 0x10000C6C0, symSize: 0x20 }
  - { offsetInCU: 0x16C36, offset: 0x22433, size: 0x8, addend: 0x0, symName: __ZNSt3__122__compressed_pair_elemIRNS_9allocatorINS_6vectorIiNS1_IiEEEEEELi1ELb0EE5__getB7v160006Ev, symObjAddr: 0x7FD0, symBinAddr: 0x10000C6E0, symSize: 0x20 }
  - { offsetInCU: 0x16C5B, offset: 0x22458, size: 0x8, addend: 0x0, symName: __ZNSt3__117__compressed_pairIPNS_6vectorIiNS_9allocatorIiEEEERNS2_IS4_EEE5firstB7v160006Ev, symObjAddr: 0x7FF0, symBinAddr: 0x10000C700, symSize: 0x20 }
  - { offsetInCU: 0x16C80, offset: 0x2247D, size: 0x8, addend: 0x0, symName: __ZNSt3__116reverse_iteratorIPNS_6vectorIiNS_9allocatorIiEEEEEC1B7v160006ES5_, symObjAddr: 0x81A0, symBinAddr: 0x10000C8B0, symSize: 0x30 }
  - { offsetInCU: 0x16CB7, offset: 0x224B4, size: 0x8, addend: 0x0, symName: __ZNKSt3__116reverse_iteratorIPNS_6vectorIiNS_9allocatorIiEEEEE4baseB7v160006Ev, symObjAddr: 0x81D0, symBinAddr: 0x10000C8E0, symSize: 0x20 }
  - { offsetInCU: 0x16CDC, offset: 0x224D9, size: 0x8, addend: 0x0, symName: __ZNKSt3__16vectorINS0_IiNS_9allocatorIiEEEENS1_IS3_EEE14__annotate_newB7v160006Em, symObjAddr: 0x8230, symBinAddr: 0x10000C940, symSize: 0xA0 }
  - { offsetInCU: 0x16D10, offset: 0x2250D, size: 0x8, addend: 0x0, symName: __ZNSt3__129_AllocatorDestroyRangeReverseINS_9allocatorINS_6vectorIiNS1_IiEEEEEENS_16reverse_iteratorIPS4_EEEC1B7v160006ERS5_RS8_SB_, symObjAddr: 0x8340, symBinAddr: 0x10000CA50, symSize: 0x40 }
  - { offsetInCU: 0x16D66, offset: 0x22563, size: 0x8, addend: 0x0, symName: __ZNSt3__116allocator_traitsINS_9allocatorINS_6vectorIiNS1_IiEEEEEEE9constructB7v160006IS4_JRKS4_EvEEvRS5_PT_DpOT0_, symObjAddr: 0x83C0, symBinAddr: 0x10000CAD0, symSize: 0x30 }
  - { offsetInCU: 0x16DC0, offset: 0x225BD, size: 0x8, addend: 0x0, symName: __ZNKSt3__116reverse_iteratorIPNS_6vectorIiNS_9allocatorIiEEEEEdeB7v160006Ev, symObjAddr: 0x8410, symBinAddr: 0x10000CB20, symSize: 0x30 }
  - { offsetInCU: 0x16DF3, offset: 0x225F0, size: 0x8, addend: 0x0, symName: __ZNSt3__116reverse_iteratorIPNS_6vectorIiNS_9allocatorIiEEEEEppB7v160006Ev, symObjAddr: 0x8440, symBinAddr: 0x10000CB50, symSize: 0x20 }
  - { offsetInCU: 0x16E18, offset: 0x22615, size: 0x8, addend: 0x0, symName: __ZNSt3__128__exception_guard_exceptionsINS_29_AllocatorDestroyRangeReverseINS_9allocatorINS_6vectorIiNS2_IiEEEEEENS_16reverse_iteratorIPS5_EEEEE10__completeB7v160006Ev, symObjAddr: 0x8460, symBinAddr: 0x10000CB70, symSize: 0x20 }
  - { offsetInCU: 0x16E3D, offset: 0x2263A, size: 0x8, addend: 0x0, symName: __ZNSt3__128__exception_guard_exceptionsINS_29_AllocatorDestroyRangeReverseINS_9allocatorINS_6vectorIiNS2_IiEEEEEENS_16reverse_iteratorIPS5_EEEEED1B7v160006Ev, symObjAddr: 0x8480, symBinAddr: 0x10000CB90, symSize: 0x20 }
  - { offsetInCU: 0x16E66, offset: 0x22663, size: 0x8, addend: 0x0, symName: __ZNSt3__128__exception_guard_exceptionsINS_29_AllocatorDestroyRangeReverseINS_9allocatorINS_6vectorIiNS2_IiEEEEEENS_16reverse_iteratorIPS5_EEEEEC1B7v160006ESA_, symObjAddr: 0x84A0, symBinAddr: 0x10000CBB0, symSize: 0x40 }
  - { offsetInCU: 0x16E9D, offset: 0x2269A, size: 0x8, addend: 0x0, symName: __ZNSt3__128__exception_guard_exceptionsINS_29_AllocatorDestroyRangeReverseINS_9allocatorINS_6vectorIiNS2_IiEEEEEENS_16reverse_iteratorIPS5_EEEEEC2B7v160006ESA_, symObjAddr: 0x84E0, symBinAddr: 0x10000CBF0, symSize: 0x30 }
  - { offsetInCU: 0x16ED4, offset: 0x226D1, size: 0x8, addend: 0x0, symName: __ZNSt3__129_AllocatorDestroyRangeReverseINS_9allocatorINS_6vectorIiNS1_IiEEEEEENS_16reverse_iteratorIPS4_EEEC2B7v160006ERS5_RS8_SB_, symObjAddr: 0x8510, symBinAddr: 0x10000CC20, symSize: 0x40 }
  - { offsetInCU: 0x16F2A, offset: 0x22727, size: 0x8, addend: 0x0, symName: __ZNSt3__19allocatorINS_6vectorIiNS0_IiEEEEE9constructB7v160006IS3_JRKS3_EEEvPT_DpOT0_, symObjAddr: 0x8550, symBinAddr: 0x10000CC60, symSize: 0x30 }
  - { offsetInCU: 0x16F81, offset: 0x2277E, size: 0x8, addend: 0x0, symName: __ZNSt3__16vectorIiNS_9allocatorIiEEEC1ERKS3_, symObjAddr: 0x8580, symBinAddr: 0x10000CC90, symSize: 0x30 }
  - { offsetInCU: 0x16FBA, offset: 0x227B7, size: 0x8, addend: 0x0, symName: __ZNSt3__16vectorIiNS_9allocatorIiEEEC2ERKS3_, symObjAddr: 0x85B0, symBinAddr: 0x10000CCC0, symSize: 0x110 }
  - { offsetInCU: 0x17022, offset: 0x2281F, size: 0x8, addend: 0x0, symName: __ZNSt3__116allocator_traitsINS_9allocatorIiEEE37select_on_container_copy_constructionB7v160006IS2_vvEES2_RKS2_, symObjAddr: 0x86C0, symBinAddr: 0x10000CDD0, symSize: 0x10 }
  - { offsetInCU: 0x17053, offset: 0x22850, size: 0x8, addend: 0x0, symName: __ZNKSt3__16vectorIiNS_9allocatorIiEEE7__allocB7v160006Ev, symObjAddr: 0x86D0, symBinAddr: 0x10000CDE0, symSize: 0x20 }
  - { offsetInCU: 0x17078, offset: 0x22875, size: 0x8, addend: 0x0, symName: __ZNSt3__16vectorIiNS_9allocatorIiEEE11__vallocateB7v160006Em, symObjAddr: 0x8730, symBinAddr: 0x10000CE40, symSize: 0xA0 }
  - { offsetInCU: 0x170BB, offset: 0x228B8, size: 0x8, addend: 0x0, symName: __ZNSt3__16vectorIiNS_9allocatorIiEEE18__construct_at_endIPiLi0EEEvT_S6_m, symObjAddr: 0x87D0, symBinAddr: 0x10000CEE0, symSize: 0xA0 }
  - { offsetInCU: 0x1712D, offset: 0x2292A, size: 0x8, addend: 0x0, symName: __ZNSt3__128__exception_guard_exceptionsINS_6vectorIiNS_9allocatorIiEEE16__destroy_vectorEE10__completeB7v160006Ev, symObjAddr: 0x8870, symBinAddr: 0x10000CF80, symSize: 0x20 }
  - { offsetInCU: 0x17152, offset: 0x2294F, size: 0x8, addend: 0x0, symName: __ZNSt3__128__exception_guard_exceptionsINS_6vectorIiNS_9allocatorIiEEE16__destroy_vectorEED1B7v160006Ev, symObjAddr: 0x8890, symBinAddr: 0x10000CFA0, symSize: 0x20 }
  - { offsetInCU: 0x1717B, offset: 0x22978, size: 0x8, addend: 0x0, symName: __ZNKSt3__117__compressed_pairIPiNS_9allocatorIiEEE6secondB7v160006Ev, symObjAddr: 0x88B0, symBinAddr: 0x10000CFC0, symSize: 0x20 }
  - { offsetInCU: 0x171A0, offset: 0x2299D, size: 0x8, addend: 0x0, symName: __ZNKSt3__122__compressed_pair_elemINS_9allocatorIiEELi1ELb1EE5__getB7v160006Ev, symObjAddr: 0x88D0, symBinAddr: 0x10000CFE0, symSize: 0x10 }
  - { offsetInCU: 0x171C5, offset: 0x229C2, size: 0x8, addend: 0x0, symName: __ZNSt3__128__exception_guard_exceptionsINS_6vectorIiNS_9allocatorIiEEE16__destroy_vectorEEC1B7v160006ES5_, symObjAddr: 0x88E0, symBinAddr: 0x10000CFF0, symSize: 0x30 }
  - { offsetInCU: 0x171FC, offset: 0x229F9, size: 0x8, addend: 0x0, symName: __ZNSt3__128__exception_guard_exceptionsINS_6vectorIiNS_9allocatorIiEEE16__destroy_vectorEEC2B7v160006ES5_, symObjAddr: 0x8910, symBinAddr: 0x10000D020, symSize: 0x20 }
  - { offsetInCU: 0x17233, offset: 0x22A30, size: 0x8, addend: 0x0, symName: __ZNKSt3__16vectorIiNS_9allocatorIiEEE8max_sizeEv, symObjAddr: 0x8930, symBinAddr: 0x10000D040, symSize: 0x70 }
  - { offsetInCU: 0x17259, offset: 0x22A56, size: 0x8, addend: 0x0, symName: __ZNKSt3__16vectorIiNS_9allocatorIiEEE20__throw_length_errorB7v160006Ev, symObjAddr: 0x89A0, symBinAddr: 0x10000D0B0, symSize: 0x20 }
  - { offsetInCU: 0x1727E, offset: 0x22A7B, size: 0x8, addend: 0x0, symName: __ZNKSt3__16vectorIiNS_9allocatorIiEEE14__annotate_newB7v160006Em, symObjAddr: 0x8A00, symBinAddr: 0x10000D110, symSize: 0xB0 }
  - { offsetInCU: 0x172B2, offset: 0x22AAF, size: 0x8, addend: 0x0, symName: __ZNSt3__116allocator_traitsINS_9allocatorIiEEE8max_sizeB7v160006IS2_vEEmRKS2_, symObjAddr: 0x8AB0, symBinAddr: 0x10000D1C0, symSize: 0x20 }
  - { offsetInCU: 0x172E1, offset: 0x22ADE, size: 0x8, addend: 0x0, symName: __ZNKSt3__19allocatorIiE8max_sizeB7v160006Ev, symObjAddr: 0x8AD0, symBinAddr: 0x10000D1E0, symSize: 0x20 }
  - { offsetInCU: 0x17306, offset: 0x22B03, size: 0x8, addend: 0x0, symName: __ZNSt3__19allocatorIiE8allocateB7v160006Em, symObjAddr: 0x8AF0, symBinAddr: 0x10000D200, symSize: 0x80 }
  - { offsetInCU: 0x17352, offset: 0x22B4F, size: 0x8, addend: 0x0, symName: __ZNSt3__16vectorIiNS_9allocatorIiEEE21_ConstructTransactionC1B7v160006ERS3_m, symObjAddr: 0x8B70, symBinAddr: 0x10000D280, symSize: 0x30 }
  - { offsetInCU: 0x17399, offset: 0x22B96, size: 0x8, addend: 0x0, symName: __ZNSt3__16vectorIiNS_9allocatorIiEEE21_ConstructTransactionD1B7v160006Ev, symObjAddr: 0x8CB0, symBinAddr: 0x10000D3C0, symSize: 0x20 }
  - { offsetInCU: 0x173C2, offset: 0x22BBF, size: 0x8, addend: 0x0, symName: __ZNSt3__16vectorIiNS_9allocatorIiEEE21_ConstructTransactionC2B7v160006ERS3_m, symObjAddr: 0x8CD0, symBinAddr: 0x10000D3E0, symSize: 0x40 }
  - { offsetInCU: 0x17409, offset: 0x22C06, size: 0x8, addend: 0x0, symName: __ZNSt3__129_AllocatorDestroyRangeReverseINS_9allocatorIiEEPiEC1B7v160006ERS2_RS3_S6_, symObjAddr: 0x8D70, symBinAddr: 0x10000D480, symSize: 0x40 }
  - { offsetInCU: 0x1745F, offset: 0x22C5C, size: 0x8, addend: 0x0, symName: __ZNSt3__116allocator_traitsINS_9allocatorIiEEE9constructB7v160006IiJRiEvEEvRS2_PT_DpOT0_, symObjAddr: 0x8DB0, symBinAddr: 0x10000D4C0, symSize: 0x30 }
  - { offsetInCU: 0x174B9, offset: 0x22CB6, size: 0x8, addend: 0x0, symName: __ZNSt3__128__exception_guard_exceptionsINS_29_AllocatorDestroyRangeReverseINS_9allocatorIiEEPiEEE10__completeB7v160006Ev, symObjAddr: 0x8DE0, symBinAddr: 0x10000D4F0, symSize: 0x20 }
  - { offsetInCU: 0x174DE, offset: 0x22CDB, size: 0x8, addend: 0x0, symName: __ZNSt3__128__exception_guard_exceptionsINS_29_AllocatorDestroyRangeReverseINS_9allocatorIiEEPiEEED1B7v160006Ev, symObjAddr: 0x8E00, symBinAddr: 0x10000D510, symSize: 0x20 }
  - { offsetInCU: 0x17507, offset: 0x22D04, size: 0x8, addend: 0x0, symName: __ZNSt3__128__exception_guard_exceptionsINS_29_AllocatorDestroyRangeReverseINS_9allocatorIiEEPiEEEC1B7v160006ES5_, symObjAddr: 0x8E20, symBinAddr: 0x10000D530, symSize: 0x40 }
  - { offsetInCU: 0x1753E, offset: 0x22D3B, size: 0x8, addend: 0x0, symName: __ZNSt3__128__exception_guard_exceptionsINS_29_AllocatorDestroyRangeReverseINS_9allocatorIiEEPiEEEC2B7v160006ES5_, symObjAddr: 0x8E60, symBinAddr: 0x10000D570, symSize: 0x30 }
  - { offsetInCU: 0x17575, offset: 0x22D72, size: 0x8, addend: 0x0, symName: __ZNSt3__129_AllocatorDestroyRangeReverseINS_9allocatorIiEEPiEC2B7v160006ERS2_RS3_S6_, symObjAddr: 0x8E90, symBinAddr: 0x10000D5A0, symSize: 0x40 }
  - { offsetInCU: 0x175CB, offset: 0x22DC8, size: 0x8, addend: 0x0, symName: __ZNSt3__19allocatorIiE9constructB7v160006IiJRiEEEvPT_DpOT0_, symObjAddr: 0x8ED0, symBinAddr: 0x10000D5E0, symSize: 0x20 }
  - { offsetInCU: 0x17622, offset: 0x22E1F, size: 0x8, addend: 0x0, symName: __ZNSt3__128__exception_guard_exceptionsINS_29_AllocatorDestroyRangeReverseINS_9allocatorIiEEPiEEED2B7v160006Ev, symObjAddr: 0x8EF0, symBinAddr: 0x10000D600, symSize: 0x30 }
  - { offsetInCU: 0x1764B, offset: 0x22E48, size: 0x8, addend: 0x0, symName: __ZNKSt3__129_AllocatorDestroyRangeReverseINS_9allocatorIiEEPiEclB7v160006Ev, symObjAddr: 0x8F20, symBinAddr: 0x10000D630, symSize: 0x60 }
  - { offsetInCU: 0x17670, offset: 0x22E6D, size: 0x8, addend: 0x0, symName: __ZNSt3__116reverse_iteratorIPiEC1B7v160006ES1_, symObjAddr: 0x8FF0, symBinAddr: 0x10000D700, symSize: 0x30 }
  - { offsetInCU: 0x176A7, offset: 0x22EA4, size: 0x8, addend: 0x0, symName: __ZNSt3__116reverse_iteratorIPiEppB7v160006Ev, symObjAddr: 0x9080, symBinAddr: 0x10000D790, symSize: 0x20 }
  - { offsetInCU: 0x176CC, offset: 0x22EC9, size: 0x8, addend: 0x0, symName: __ZNKSt3__116reverse_iteratorIPiE4baseB7v160006Ev, symObjAddr: 0x90A0, symBinAddr: 0x10000D7B0, symSize: 0x20 }
  - { offsetInCU: 0x176F6, offset: 0x22EF3, size: 0x8, addend: 0x0, symName: __ZNSt3__119__to_address_helperINS_16reverse_iteratorIPiEEvE6__callB7v160006ERKS3_, symObjAddr: 0x90C0, symBinAddr: 0x10000D7D0, symSize: 0x50 }
  - { offsetInCU: 0x17719, offset: 0x22F16, size: 0x8, addend: 0x0, symName: __ZNKSt3__116reverse_iteratorIPiEptB7v160006Ev, symObjAddr: 0x9110, symBinAddr: 0x10000D820, symSize: 0x20 }
  - { offsetInCU: 0x1773E, offset: 0x22F3B, size: 0x8, addend: 0x0, symName: __ZNKSt3__116reverse_iteratorIPiEdeB7v160006Ev, symObjAddr: 0x9130, symBinAddr: 0x10000D840, symSize: 0x30 }
  - { offsetInCU: 0x17771, offset: 0x22F6E, size: 0x8, addend: 0x0, symName: __ZNSt3__116reverse_iteratorIPiEC2B7v160006ES1_, symObjAddr: 0x9160, symBinAddr: 0x10000D870, symSize: 0x30 }
  - { offsetInCU: 0x177A8, offset: 0x22FA5, size: 0x8, addend: 0x0, symName: __ZNSt3__16vectorIiNS_9allocatorIiEEE21_ConstructTransactionD2B7v160006Ev, symObjAddr: 0x9190, symBinAddr: 0x10000D8A0, symSize: 0x20 }
  - { offsetInCU: 0x177D1, offset: 0x22FCE, size: 0x8, addend: 0x0, symName: __ZNSt3__128__exception_guard_exceptionsINS_6vectorIiNS_9allocatorIiEEE16__destroy_vectorEED2B7v160006Ev, symObjAddr: 0x91B0, symBinAddr: 0x10000D8C0, symSize: 0x30 }
  - { offsetInCU: 0x177FF, offset: 0x22FFC, size: 0x8, addend: 0x0, symName: __ZNSt3__119__to_address_helperINS_16reverse_iteratorIPNS_6vectorIiNS_9allocatorIiEEEEEEvE6__callB7v160006ERKS7_, symObjAddr: 0x91E0, symBinAddr: 0x10000D8F0, symSize: 0x50 }
  - { offsetInCU: 0x17822, offset: 0x2301F, size: 0x8, addend: 0x0, symName: __ZNKSt3__116reverse_iteratorIPNS_6vectorIiNS_9allocatorIiEEEEEptB7v160006Ev, symObjAddr: 0x9230, symBinAddr: 0x10000D940, symSize: 0x20 }
  - { offsetInCU: 0x17847, offset: 0x23044, size: 0x8, addend: 0x0, symName: __ZNSt3__128__exception_guard_exceptionsINS_29_AllocatorDestroyRangeReverseINS_9allocatorINS_6vectorIiNS2_IiEEEEEENS_16reverse_iteratorIPS5_EEEEED2B7v160006Ev, symObjAddr: 0x9250, symBinAddr: 0x10000D960, symSize: 0x30 }
  - { offsetInCU: 0x17870, offset: 0x2306D, size: 0x8, addend: 0x0, symName: __ZNKSt3__129_AllocatorDestroyRangeReverseINS_9allocatorINS_6vectorIiNS1_IiEEEEEENS_16reverse_iteratorIPS4_EEEclB7v160006Ev, symObjAddr: 0x9280, symBinAddr: 0x10000D990, symSize: 0xF0 }
  - { offsetInCU: 0x17896, offset: 0x23093, size: 0x8, addend: 0x0, symName: __ZNSt3__116reverse_iteratorINS0_IPNS_6vectorIiNS_9allocatorIiEEEEEEEC1B7v160006ES6_, symObjAddr: 0x93E0, symBinAddr: 0x10000DAF0, symSize: 0x30 }
  - { offsetInCU: 0x178CD, offset: 0x230CA, size: 0x8, addend: 0x0, symName: __ZNSt3__116reverse_iteratorINS0_IPNS_6vectorIiNS_9allocatorIiEEEEEEEppB7v160006Ev, symObjAddr: 0x9480, symBinAddr: 0x10000DB90, symSize: 0x30 }
  - { offsetInCU: 0x178F2, offset: 0x230EF, size: 0x8, addend: 0x0, symName: __ZNKSt3__116reverse_iteratorINS0_IPNS_6vectorIiNS_9allocatorIiEEEEEEE4baseB7v160006Ev, symObjAddr: 0x94B0, symBinAddr: 0x10000DBC0, symSize: 0x20 }
  - { offsetInCU: 0x1791C, offset: 0x23119, size: 0x8, addend: 0x0, symName: __ZNSt3__119__to_address_helperINS_16reverse_iteratorINS1_IPNS_6vectorIiNS_9allocatorIiEEEEEEEEvE6__callB7v160006ERKS8_, symObjAddr: 0x94D0, symBinAddr: 0x10000DBE0, symSize: 0x50 }
  - { offsetInCU: 0x1793F, offset: 0x2313C, size: 0x8, addend: 0x0, symName: __ZNKSt3__116reverse_iteratorINS0_IPNS_6vectorIiNS_9allocatorIiEEEEEEEptB7v160006Ev, symObjAddr: 0x9520, symBinAddr: 0x10000DC30, symSize: 0x20 }
  - { offsetInCU: 0x17964, offset: 0x23161, size: 0x8, addend: 0x0, symName: __ZNKSt3__116reverse_iteratorINS0_IPNS_6vectorIiNS_9allocatorIiEEEEEEEdeB7v160006Ev, symObjAddr: 0x9540, symBinAddr: 0x10000DC50, symSize: 0x40 }
  - { offsetInCU: 0x17997, offset: 0x23194, size: 0x8, addend: 0x0, symName: __ZNSt3__116reverse_iteratorIPNS_6vectorIiNS_9allocatorIiEEEEEmmB7v160006Ev, symObjAddr: 0x9580, symBinAddr: 0x10000DC90, symSize: 0x20 }
  - { offsetInCU: 0x179BC, offset: 0x231B9, size: 0x8, addend: 0x0, symName: __ZNSt3__116reverse_iteratorINS0_IPNS_6vectorIiNS_9allocatorIiEEEEEEEC2B7v160006ES6_, symObjAddr: 0x95A0, symBinAddr: 0x10000DCB0, symSize: 0x40 }
  - { offsetInCU: 0x179F3, offset: 0x231F0, size: 0x8, addend: 0x0, symName: __ZNSt3__116reverse_iteratorIPNS_6vectorIiNS_9allocatorIiEEEEEC2B7v160006ES5_, symObjAddr: 0x95E0, symBinAddr: 0x10000DCF0, symSize: 0x30 }
  - { offsetInCU: 0x17A2A, offset: 0x23227, size: 0x8, addend: 0x0, symName: __ZNSt3__114__split_bufferINS_6vectorIiNS_9allocatorIiEEEERNS2_IS4_EEED2Ev, symObjAddr: 0x9610, symBinAddr: 0x10000DD20, symSize: 0x60 }
  - { offsetInCU: 0x17A54, offset: 0x23251, size: 0x8, addend: 0x0, symName: __ZNSt3__114__split_bufferINS_6vectorIiNS_9allocatorIiEEEERNS2_IS4_EEE5clearB7v160006Ev, symObjAddr: 0x9670, symBinAddr: 0x10000DD80, symSize: 0x20 }
  - { offsetInCU: 0x17A79, offset: 0x23276, size: 0x8, addend: 0x0, symName: __ZNKSt3__114__split_bufferINS_6vectorIiNS_9allocatorIiEEEERNS2_IS4_EEE8capacityB7v160006Ev, symObjAddr: 0x9690, symBinAddr: 0x10000DDA0, symSize: 0x40 }
  - { offsetInCU: 0x17A9E, offset: 0x2329B, size: 0x8, addend: 0x0, symName: __ZNSt3__114__split_bufferINS_6vectorIiNS_9allocatorIiEEEERNS2_IS4_EEE17__destruct_at_endB7v160006EPS4_, symObjAddr: 0x96D0, symBinAddr: 0x10000DDE0, symSize: 0x30 }
  - { offsetInCU: 0x17AD1, offset: 0x232CE, size: 0x8, addend: 0x0, symName: __ZNSt3__114__split_bufferINS_6vectorIiNS_9allocatorIiEEEERNS2_IS4_EEE17__destruct_at_endB7v160006EPS4_NS_17integral_constantIbLb0EEE, symObjAddr: 0x9700, symBinAddr: 0x10000DE10, symSize: 0x80 }
  - { offsetInCU: 0x17B10, offset: 0x2330D, size: 0x8, addend: 0x0, symName: __ZNKSt3__114__split_bufferINS_6vectorIiNS_9allocatorIiEEEERNS2_IS4_EEE9__end_capB7v160006Ev, symObjAddr: 0x9780, symBinAddr: 0x10000DE90, symSize: 0x20 }
  - { offsetInCU: 0x17B35, offset: 0x23332, size: 0x8, addend: 0x0, symName: __ZNKSt3__117__compressed_pairIPNS_6vectorIiNS_9allocatorIiEEEERNS2_IS4_EEE5firstB7v160006Ev, symObjAddr: 0x97A0, symBinAddr: 0x10000DEB0, symSize: 0x20 }
  - { offsetInCU: 0x17B5F, offset: 0x2335C, size: 0x8, addend: 0x0, symName: __ZNSt3__16vectorIiNS_9allocatorIiEEE22__construct_one_at_endB7v160006IJiEEEvDpOT_, symObjAddr: 0x97C0, symBinAddr: 0x10000DED0, symSize: 0xA0 }
  - { offsetInCU: 0x17BAF, offset: 0x233AC, size: 0x8, addend: 0x0, symName: __ZNSt3__16vectorIiNS_9allocatorIiEEE21__push_back_slow_pathIiEEvOT_, symObjAddr: 0x9860, symBinAddr: 0x10000DF70, symSize: 0xE0 }
  - { offsetInCU: 0x17C0B, offset: 0x23408, size: 0x8, addend: 0x0, symName: __ZNSt3__116allocator_traitsINS_9allocatorIiEEE9constructB7v160006IiJiEvEEvRS2_PT_DpOT0_, symObjAddr: 0x9940, symBinAddr: 0x10000E050, symSize: 0x30 }
  - { offsetInCU: 0x17C65, offset: 0x23462, size: 0x8, addend: 0x0, symName: __ZNSt3__19allocatorIiE9constructB7v160006IiJiEEEvPT_DpOT0_, symObjAddr: 0x9970, symBinAddr: 0x10000E080, symSize: 0x20 }
  - { offsetInCU: 0x17CBC, offset: 0x234B9, size: 0x8, addend: 0x0, symName: __ZNKSt3__16vectorIiNS_9allocatorIiEEE11__recommendB7v160006Em, symObjAddr: 0x9990, symBinAddr: 0x10000E0A0, symSize: 0xA0 }
  - { offsetInCU: 0x17D0F, offset: 0x2350C, size: 0x8, addend: 0x0, symName: __ZNSt3__114__split_bufferIiRNS_9allocatorIiEEEC1EmmS3_, symObjAddr: 0x9A30, symBinAddr: 0x10000E140, symSize: 0x40 }
  - { offsetInCU: 0x17D63, offset: 0x23560, size: 0x8, addend: 0x0, symName: __ZNSt3__114__split_bufferIiRNS_9allocatorIiEEED1Ev, symObjAddr: 0x9BA0, symBinAddr: 0x10000E2B0, symSize: 0x20 }
  - { offsetInCU: 0x17D8D, offset: 0x2358A, size: 0x8, addend: 0x0, symName: __ZNSt3__114__split_bufferIiRNS_9allocatorIiEEEC2EmmS3_, symObjAddr: 0x9BC0, symBinAddr: 0x10000E2D0, symSize: 0xD0 }
  - { offsetInCU: 0x17DFE, offset: 0x235FB, size: 0x8, addend: 0x0, symName: __ZNSt3__117__compressed_pairIPiRNS_9allocatorIiEEEC1B7v160006IDnS4_EEOT_OT0_, symObjAddr: 0x9C90, symBinAddr: 0x10000E3A0, symSize: 0x30 }
  - { offsetInCU: 0x17E55, offset: 0x23652, size: 0x8, addend: 0x0, symName: __ZNSt3__114__split_bufferIiRNS_9allocatorIiEEE7__allocB7v160006Ev, symObjAddr: 0x9CC0, symBinAddr: 0x10000E3D0, symSize: 0x20 }
  - { offsetInCU: 0x17E7A, offset: 0x23677, size: 0x8, addend: 0x0, symName: __ZNSt3__114__split_bufferIiRNS_9allocatorIiEEE9__end_capB7v160006Ev, symObjAddr: 0x9CE0, symBinAddr: 0x10000E3F0, symSize: 0x20 }
  - { offsetInCU: 0x17E9F, offset: 0x2369C, size: 0x8, addend: 0x0, symName: __ZNSt3__117__compressed_pairIPiRNS_9allocatorIiEEEC2B7v160006IDnS4_EEOT_OT0_, symObjAddr: 0x9D00, symBinAddr: 0x10000E410, symSize: 0x40 }
  - { offsetInCU: 0x17EF6, offset: 0x236F3, size: 0x8, addend: 0x0, symName: __ZNSt3__122__compressed_pair_elemIRNS_9allocatorIiEELi1ELb0EEC2B7v160006IS3_vEEOT_, symObjAddr: 0x9D40, symBinAddr: 0x10000E450, symSize: 0x20 }
  - { offsetInCU: 0x17F38, offset: 0x23735, size: 0x8, addend: 0x0, symName: __ZNSt3__117__compressed_pairIPiRNS_9allocatorIiEEE6secondB7v160006Ev, symObjAddr: 0x9D60, symBinAddr: 0x10000E470, symSize: 0x20 }
  - { offsetInCU: 0x17F5D, offset: 0x2375A, size: 0x8, addend: 0x0, symName: __ZNSt3__122__compressed_pair_elemIRNS_9allocatorIiEELi1ELb0EE5__getB7v160006Ev, symObjAddr: 0x9D80, symBinAddr: 0x10000E490, symSize: 0x20 }
  - { offsetInCU: 0x17F82, offset: 0x2377F, size: 0x8, addend: 0x0, symName: __ZNSt3__117__compressed_pairIPiRNS_9allocatorIiEEE5firstB7v160006Ev, symObjAddr: 0x9DA0, symBinAddr: 0x10000E4B0, symSize: 0x20 }
  - { offsetInCU: 0x17FCA, offset: 0x237C7, size: 0x8, addend: 0x0, symName: __ZNKSt3__111__move_loopINS_17_ClassicAlgPolicyEEclB7v160006INS_16reverse_iteratorIPiEES6_S6_EENS_4pairIT_T1_EES8_T0_S9_, symObjAddr: 0xA3C0, symBinAddr: 0x10000EAD0, symSize: 0xA0 }
  - { offsetInCU: 0x18034, offset: 0x23831, size: 0x8, addend: 0x0, symName: __ZNSt3__18_IterOpsINS_17_ClassicAlgPolicyEE11__iter_moveB7v160006IRNS_16reverse_iteratorIPiEEEENS_9enable_ifIXsr12is_referenceIDTdeclsr3stdE7declvalIRT_EEEEE5valueEDTclsr3stdE4movedeclsr3stdE7declvalISA_EEEEE4typeEOS9_, symObjAddr: 0xA5B0, symBinAddr: 0x10000ECC0, symSize: 0x20 }
  - { offsetInCU: 0x18060, offset: 0x2385D, size: 0x8, addend: 0x0, symName: __ZNSt3__18_IterOpsINS_17_ClassicAlgPolicyEE25__validate_iter_referenceB7v160006IRNS_16reverse_iteratorIPiEEEEvv, symObjAddr: 0xA5D0, symBinAddr: 0x10000ECE0, symSize: 0x10 }
  - { offsetInCU: 0x1807E, offset: 0x2387B, size: 0x8, addend: 0x0, symName: __ZNSt3__118__unwrap_iter_implINS_16reverse_iteratorIPiEELb0EE8__unwrapB7v160006ES3_, symObjAddr: 0xA5E0, symBinAddr: 0x10000ECF0, symSize: 0x20 }
  - { offsetInCU: 0x180A1, offset: 0x2389E, size: 0x8, addend: 0x0, symName: __ZNSt3__14pairINS_16reverse_iteratorIPiEES3_EC1B7v160006ERKS3_S6_, symObjAddr: 0xA600, symBinAddr: 0x10000ED10, symSize: 0x30 }
  - { offsetInCU: 0x180E6, offset: 0x238E3, size: 0x8, addend: 0x0, symName: __ZNSt3__14pairINS_16reverse_iteratorIPiEES3_EC2B7v160006ERKS3_S6_, symObjAddr: 0xA630, symBinAddr: 0x10000ED40, symSize: 0x40 }
  - { offsetInCU: 0x1812B, offset: 0x23928, size: 0x8, addend: 0x0, symName: __ZNSt3__118__unwrap_iter_implINS_16reverse_iteratorIPiEELb0EE8__rewrapB7v160006ES3_S3_, symObjAddr: 0xA670, symBinAddr: 0x10000ED80, symSize: 0x30 }
  - { offsetInCU: 0x18159, offset: 0x23956, size: 0x8, addend: 0x0, symName: __ZNSt3__114__split_bufferIiRNS_9allocatorIiEEED2Ev, symObjAddr: 0xA6A0, symBinAddr: 0x10000EDB0, symSize: 0x60 }
  - { offsetInCU: 0x18183, offset: 0x23980, size: 0x8, addend: 0x0, symName: __ZNSt3__114__split_bufferIiRNS_9allocatorIiEEE5clearB7v160006Ev, symObjAddr: 0xA700, symBinAddr: 0x10000EE10, symSize: 0x20 }
  - { offsetInCU: 0x181A8, offset: 0x239A5, size: 0x8, addend: 0x0, symName: __ZNKSt3__114__split_bufferIiRNS_9allocatorIiEEE8capacityB7v160006Ev, symObjAddr: 0xA720, symBinAddr: 0x10000EE30, symSize: 0x30 }
  - { offsetInCU: 0x181CD, offset: 0x239CA, size: 0x8, addend: 0x0, symName: __ZNSt3__114__split_bufferIiRNS_9allocatorIiEEE17__destruct_at_endB7v160006EPi, symObjAddr: 0xA750, symBinAddr: 0x10000EE60, symSize: 0x30 }
  - { offsetInCU: 0x18200, offset: 0x239FD, size: 0x8, addend: 0x0, symName: __ZNSt3__114__split_bufferIiRNS_9allocatorIiEEE17__destruct_at_endB7v160006EPiNS_17integral_constantIbLb0EEE, symObjAddr: 0xA780, symBinAddr: 0x10000EE90, symSize: 0x80 }
  - { offsetInCU: 0x1823F, offset: 0x23A3C, size: 0x8, addend: 0x0, symName: __ZNKSt3__114__split_bufferIiRNS_9allocatorIiEEE9__end_capB7v160006Ev, symObjAddr: 0xA800, symBinAddr: 0x10000EF10, symSize: 0x20 }
  - { offsetInCU: 0x18264, offset: 0x23A61, size: 0x8, addend: 0x0, symName: __ZNKSt3__117__compressed_pairIPiRNS_9allocatorIiEEE5firstB7v160006Ev, symObjAddr: 0xA820, symBinAddr: 0x10000EF30, symSize: 0x1B }
...
